                                      1 ;--------------------------------------------------------
                                      2 ; File Created by SDCC : free open source ISO C Compiler 
                                      3 ; Version 4.4.0 #14620 (MINGW32)
                                      4 ;--------------------------------------------------------
                                      5 	.module config_menu
                                      6 	.optsdcc -mmcs51 --model-small
                                      7 	
                                      8 ;--------------------------------------------------------
                                      9 ; Public variables in this module
                                     10 ;--------------------------------------------------------
                                     11 	.globl _set_mac_adr
                                     12 	.globl _send_4
                                     13 	.globl _send_1
                                     14 	.globl _end
                                     15 	.globl _begin
                                     16 	.globl _asm_shift_in_2
                                     17 	.globl _asm_shift_out_2
                                     18 	.globl _transmit_string
                                     19 	.globl _transmit_int
                                     20 	.globl _transmit_data
                                     21 	.globl _CY
                                     22 	.globl _AC
                                     23 	.globl _F0
                                     24 	.globl _RS1
                                     25 	.globl _RS0
                                     26 	.globl _OV
                                     27 	.globl _F1
                                     28 	.globl _P
                                     29 	.globl _PS
                                     30 	.globl _PT1
                                     31 	.globl _PX1
                                     32 	.globl _PT0
                                     33 	.globl _PX0
                                     34 	.globl _RD
                                     35 	.globl _WR
                                     36 	.globl _T1
                                     37 	.globl _T0
                                     38 	.globl _INT1
                                     39 	.globl _INT0
                                     40 	.globl _TXD
                                     41 	.globl _RXD
                                     42 	.globl _P3_7
                                     43 	.globl _P3_6
                                     44 	.globl _P3_5
                                     45 	.globl _P3_4
                                     46 	.globl _P3_3
                                     47 	.globl _P3_2
                                     48 	.globl _P3_1
                                     49 	.globl _P3_0
                                     50 	.globl _EA
                                     51 	.globl _ES
                                     52 	.globl _ET1
                                     53 	.globl _EX1
                                     54 	.globl _ET0
                                     55 	.globl _EX0
                                     56 	.globl _P2_7
                                     57 	.globl _P2_6
                                     58 	.globl _P2_5
                                     59 	.globl _P2_4
                                     60 	.globl _P2_3
                                     61 	.globl _P2_2
                                     62 	.globl _P2_1
                                     63 	.globl _P2_0
                                     64 	.globl _SM0
                                     65 	.globl _SM1
                                     66 	.globl _SM2
                                     67 	.globl _REN
                                     68 	.globl _TB8
                                     69 	.globl _RB8
                                     70 	.globl _TI
                                     71 	.globl _RI
                                     72 	.globl _P1_7
                                     73 	.globl _P1_6
                                     74 	.globl _P1_5
                                     75 	.globl _P1_4
                                     76 	.globl _P1_3
                                     77 	.globl _P1_2
                                     78 	.globl _P1_1
                                     79 	.globl _P1_0
                                     80 	.globl _TF1
                                     81 	.globl _TR1
                                     82 	.globl _TF0
                                     83 	.globl _TR0
                                     84 	.globl _IE1
                                     85 	.globl _IT1
                                     86 	.globl _IE0
                                     87 	.globl _IT0
                                     88 	.globl _P0_7
                                     89 	.globl _P0_6
                                     90 	.globl _P0_5
                                     91 	.globl _P0_4
                                     92 	.globl _P0_3
                                     93 	.globl _P0_2
                                     94 	.globl _P0_1
                                     95 	.globl _P0_0
                                     96 	.globl _B
                                     97 	.globl _ACC
                                     98 	.globl _PSW
                                     99 	.globl _IP
                                    100 	.globl _P3
                                    101 	.globl _IE
                                    102 	.globl _P2
                                    103 	.globl _SBUF
                                    104 	.globl _SCON
                                    105 	.globl _P1
                                    106 	.globl _TH1
                                    107 	.globl _TH0
                                    108 	.globl _TL1
                                    109 	.globl _TL0
                                    110 	.globl _TMOD
                                    111 	.globl _TCON
                                    112 	.globl _PCON
                                    113 	.globl _DPH
                                    114 	.globl _DPL
                                    115 	.globl _SP
                                    116 	.globl _P0
                                    117 	.globl _get_config
                                    118 	.globl _process_cmd
                                    119 ;--------------------------------------------------------
                                    120 ; special function registers
                                    121 ;--------------------------------------------------------
                                    122 	.area RSEG    (ABS,DATA)
      000000                        123 	.org 0x0000
                           000080   124 _P0	=	0x0080
                           000081   125 _SP	=	0x0081
                           000082   126 _DPL	=	0x0082
                           000083   127 _DPH	=	0x0083
                           000087   128 _PCON	=	0x0087
                           000088   129 _TCON	=	0x0088
                           000089   130 _TMOD	=	0x0089
                           00008A   131 _TL0	=	0x008a
                           00008B   132 _TL1	=	0x008b
                           00008C   133 _TH0	=	0x008c
                           00008D   134 _TH1	=	0x008d
                           000090   135 _P1	=	0x0090
                           000098   136 _SCON	=	0x0098
                           000099   137 _SBUF	=	0x0099
                           0000A0   138 _P2	=	0x00a0
                           0000A8   139 _IE	=	0x00a8
                           0000B0   140 _P3	=	0x00b0
                           0000B8   141 _IP	=	0x00b8
                           0000D0   142 _PSW	=	0x00d0
                           0000E0   143 _ACC	=	0x00e0
                           0000F0   144 _B	=	0x00f0
                                    145 ;--------------------------------------------------------
                                    146 ; special function bits
                                    147 ;--------------------------------------------------------
                                    148 	.area RSEG    (ABS,DATA)
      000000                        149 	.org 0x0000
                           000080   150 _P0_0	=	0x0080
                           000081   151 _P0_1	=	0x0081
                           000082   152 _P0_2	=	0x0082
                           000083   153 _P0_3	=	0x0083
                           000084   154 _P0_4	=	0x0084
                           000085   155 _P0_5	=	0x0085
                           000086   156 _P0_6	=	0x0086
                           000087   157 _P0_7	=	0x0087
                           000088   158 _IT0	=	0x0088
                           000089   159 _IE0	=	0x0089
                           00008A   160 _IT1	=	0x008a
                           00008B   161 _IE1	=	0x008b
                           00008C   162 _TR0	=	0x008c
                           00008D   163 _TF0	=	0x008d
                           00008E   164 _TR1	=	0x008e
                           00008F   165 _TF1	=	0x008f
                           000090   166 _P1_0	=	0x0090
                           000091   167 _P1_1	=	0x0091
                           000092   168 _P1_2	=	0x0092
                           000093   169 _P1_3	=	0x0093
                           000094   170 _P1_4	=	0x0094
                           000095   171 _P1_5	=	0x0095
                           000096   172 _P1_6	=	0x0096
                           000097   173 _P1_7	=	0x0097
                           000098   174 _RI	=	0x0098
                           000099   175 _TI	=	0x0099
                           00009A   176 _RB8	=	0x009a
                           00009B   177 _TB8	=	0x009b
                           00009C   178 _REN	=	0x009c
                           00009D   179 _SM2	=	0x009d
                           00009E   180 _SM1	=	0x009e
                           00009F   181 _SM0	=	0x009f
                           0000A0   182 _P2_0	=	0x00a0
                           0000A1   183 _P2_1	=	0x00a1
                           0000A2   184 _P2_2	=	0x00a2
                           0000A3   185 _P2_3	=	0x00a3
                           0000A4   186 _P2_4	=	0x00a4
                           0000A5   187 _P2_5	=	0x00a5
                           0000A6   188 _P2_6	=	0x00a6
                           0000A7   189 _P2_7	=	0x00a7
                           0000A8   190 _EX0	=	0x00a8
                           0000A9   191 _ET0	=	0x00a9
                           0000AA   192 _EX1	=	0x00aa
                           0000AB   193 _ET1	=	0x00ab
                           0000AC   194 _ES	=	0x00ac
                           0000AF   195 _EA	=	0x00af
                           0000B0   196 _P3_0	=	0x00b0
                           0000B1   197 _P3_1	=	0x00b1
                           0000B2   198 _P3_2	=	0x00b2
                           0000B3   199 _P3_3	=	0x00b3
                           0000B4   200 _P3_4	=	0x00b4
                           0000B5   201 _P3_5	=	0x00b5
                           0000B6   202 _P3_6	=	0x00b6
                           0000B7   203 _P3_7	=	0x00b7
                           0000B0   204 _RXD	=	0x00b0
                           0000B1   205 _TXD	=	0x00b1
                           0000B2   206 _INT0	=	0x00b2
                           0000B3   207 _INT1	=	0x00b3
                           0000B4   208 _T0	=	0x00b4
                           0000B5   209 _T1	=	0x00b5
                           0000B6   210 _WR	=	0x00b6
                           0000B7   211 _RD	=	0x00b7
                           0000B8   212 _PX0	=	0x00b8
                           0000B9   213 _PT0	=	0x00b9
                           0000BA   214 _PX1	=	0x00ba
                           0000BB   215 _PT1	=	0x00bb
                           0000BC   216 _PS	=	0x00bc
                           0000D0   217 _P	=	0x00d0
                           0000D1   218 _F1	=	0x00d1
                           0000D2   219 _OV	=	0x00d2
                           0000D3   220 _RS0	=	0x00d3
                           0000D4   221 _RS1	=	0x00d4
                           0000D5   222 _F0	=	0x00d5
                           0000D6   223 _AC	=	0x00d6
                           0000D7   224 _CY	=	0x00d7
                                    225 ;--------------------------------------------------------
                                    226 ; overlayable register banks
                                    227 ;--------------------------------------------------------
                                    228 	.area REG_BANK_0	(REL,OVR,DATA)
      000000                        229 	.ds 8
                                    230 ;--------------------------------------------------------
                                    231 ; internal ram data
                                    232 ;--------------------------------------------------------
                                    233 	.area DSEG    (DATA)
      000066                        234 _factor:
      000066                        235 	.ds 3
      000069                        236 _get_config_byte_10000_29:
      000069                        237 	.ds 1
      00006A                        238 _process_cmd_cmd_val_10000_42:
      00006A                        239 	.ds 6
      000070                        240 _process_byte_cmd_val_10000_53:
      000070                        241 	.ds 3
      000073                        242 _process_byte_added_10000_54:
      000073                        243 	.ds 1
      000074                        244 _process_byte_value_10000_54:
      000074                        245 	.ds 2
      000076                        246 _process_mac_cmd_val_10000_63:
      000076                        247 	.ds 3
      000079                        248 _process_mac_value_10000_64:
      000079                        249 	.ds 1
      00007A                        250 _process_mac_temp_10000_64:
      00007A                        251 	.ds 1
      00007B                        252 _process_mode_cmd_val_10000_73:
      00007B                        253 	.ds 3
                                    254 ;--------------------------------------------------------
                                    255 ; overlayable items in internal ram
                                    256 ;--------------------------------------------------------
                                    257 ;--------------------------------------------------------
                                    258 ; indirectly addressable internal ram data
                                    259 ;--------------------------------------------------------
                                    260 	.area ISEG    (DATA)
                                    261 ;--------------------------------------------------------
                                    262 ; absolute internal ram data
                                    263 ;--------------------------------------------------------
                                    264 	.area IABS    (ABS,DATA)
                                    265 	.area IABS    (ABS,DATA)
                                    266 ;--------------------------------------------------------
                                    267 ; bit data
                                    268 ;--------------------------------------------------------
                                    269 	.area BSEG    (BIT)
                                    270 ;--------------------------------------------------------
                                    271 ; paged external ram data
                                    272 ;--------------------------------------------------------
                                    273 	.area PSEG    (PAG,XDATA)
                                    274 ;--------------------------------------------------------
                                    275 ; uninitialized external ram data
                                    276 ;--------------------------------------------------------
                                    277 	.area XSEG    (XDATA)
                                    278 ;--------------------------------------------------------
                                    279 ; absolute external ram data
                                    280 ;--------------------------------------------------------
                                    281 	.area XABS    (ABS,XDATA)
                                    282 ;--------------------------------------------------------
                                    283 ; initialized external ram data
                                    284 ;--------------------------------------------------------
                                    285 	.area XISEG   (XDATA)
                                    286 	.area HOME    (CODE)
                                    287 	.area GSINIT0 (CODE)
                                    288 	.area GSINIT1 (CODE)
                                    289 	.area GSINIT2 (CODE)
                                    290 	.area GSINIT3 (CODE)
                                    291 	.area GSINIT4 (CODE)
                                    292 	.area GSINIT5 (CODE)
                                    293 	.area GSINIT  (CODE)
                                    294 	.area GSFINAL (CODE)
                                    295 	.area CSEG    (CODE)
                                    296 ;--------------------------------------------------------
                                    297 ; global & static initialisations
                                    298 ;--------------------------------------------------------
                                    299 	.area HOME    (CODE)
                                    300 	.area GSINIT  (CODE)
                                    301 	.area GSFINAL (CODE)
                                    302 	.area GSINIT  (CODE)
                                    303 ;	.\config_menu.c:8: static unsigned char factor[3] = {100, 10, 1};
      000098 75 66 64         [24]  304 	mov	_factor,#0x64
      00009B 75 67 0A         [24]  305 	mov	(_factor + 0x0001),#0x0a
      00009E 75 68 01         [24]  306 	mov	(_factor + 0x0002),#0x01
                                    307 ;--------------------------------------------------------
                                    308 ; Home
                                    309 ;--------------------------------------------------------
                                    310 	.area HOME    (CODE)
                                    311 	.area HOME    (CODE)
                                    312 ;--------------------------------------------------------
                                    313 ; code
                                    314 ;--------------------------------------------------------
                                    315 	.area CSEG    (CODE)
                                    316 ;------------------------------------------------------------
                                    317 ;Allocation info for local variables in function 'get_config'
                                    318 ;------------------------------------------------------------
                                    319 ;byte                      Allocated with name '_get_config_byte_10000_29'
                                    320 ;------------------------------------------------------------
                                    321 ;	.\config_menu.c:17: void get_config(void){
                                    322 ;	-----------------------------------------
                                    323 ;	 function get_config
                                    324 ;	-----------------------------------------
      000FA8                        325 _get_config:
                           000007   326 	ar7 = 0x07
                           000006   327 	ar6 = 0x06
                           000005   328 	ar5 = 0x05
                           000004   329 	ar4 = 0x04
                           000003   330 	ar3 = 0x03
                           000002   331 	ar2 = 0x02
                           000001   332 	ar1 = 0x01
                           000000   333 	ar0 = 0x00
                                    334 ;	.\config_menu.c:19: transmit_string("\r\nCurrent Config\r\nRTU: ");
      000FA8 90 1B A8         [24]  335 	mov	dptr,#___str_0
      000FAB 75 F0 80         [24]  336 	mov	b, #0x80
      000FAE 12 08 6D         [24]  337 	lcall	_transmit_string
                                    338 ;	.\config_menu.c:20: transmit_int(rtu + '0');
      000FB1 AF 61            [24]  339 	mov	r7,_rtu
      000FB3 74 30            [12]  340 	mov	a,#0x30
      000FB5 2F               [12]  341 	add	a, r7
      000FB6 F5 82            [12]  342 	mov	dpl,a
      000FB8 12 08 43         [24]  343 	lcall	_transmit_int
                                    344 ;	.\config_menu.c:21: transmit_string("\r\nIP Address: ");
      000FBB 90 1B C0         [24]  345 	mov	dptr,#___str_1
      000FBE 75 F0 80         [24]  346 	mov	b, #0x80
      000FC1 12 08 6D         [24]  347 	lcall	_transmit_string
                                    348 ;	.\config_menu.c:22: begin();
      000FC4 12 05 AD         [24]  349 	lcall	_begin
                                    350 ;	.\config_menu.c:24: asm_shift_in_2(0x00);
      000FC7 75 82 00         [24]  351 	mov	dpl, #0x00
      000FCA 12 05 B3         [24]  352 	lcall	_asm_shift_in_2
                                    353 ;	.\config_menu.c:25: asm_shift_in_2(0x0F);
      000FCD 75 82 0F         [24]  354 	mov	dpl, #0x0f
      000FD0 12 05 B3         [24]  355 	lcall	_asm_shift_in_2
                                    356 ;	.\config_menu.c:26: asm_shift_in_2(0x00);
      000FD3 75 82 00         [24]  357 	mov	dpl, #0x00
      000FD6 12 05 B3         [24]  358 	lcall	_asm_shift_in_2
                                    359 ;	.\config_menu.c:27: byte = asm_shift_out_2();
      000FD9 12 06 8D         [24]  360 	lcall	_asm_shift_out_2
      000FDC 85 82 69         [24]  361 	mov	_get_config_byte_10000_29,dpl
                                    362 ;	.\config_menu.c:28: print_byte(&byte);
      000FDF 90 00 69         [24]  363 	mov	dptr,#_get_config_byte_10000_29
      000FE2 75 F0 40         [24]  364 	mov	b, #0x40
      000FE5 12 11 8C         [24]  365 	lcall	_print_byte
                                    366 ;	.\config_menu.c:29: transmit_int('.');
      000FE8 75 82 2E         [24]  367 	mov	dpl, #0x2e
      000FEB 12 08 43         [24]  368 	lcall	_transmit_int
                                    369 ;	.\config_menu.c:30: byte = asm_shift_out_2();
      000FEE 12 06 8D         [24]  370 	lcall	_asm_shift_out_2
      000FF1 85 82 69         [24]  371 	mov	_get_config_byte_10000_29,dpl
                                    372 ;	.\config_menu.c:31: print_byte(&byte);
      000FF4 90 00 69         [24]  373 	mov	dptr,#_get_config_byte_10000_29
      000FF7 75 F0 40         [24]  374 	mov	b, #0x40
      000FFA 12 11 8C         [24]  375 	lcall	_print_byte
                                    376 ;	.\config_menu.c:32: transmit_int('.');
      000FFD 75 82 2E         [24]  377 	mov	dpl, #0x2e
      001000 12 08 43         [24]  378 	lcall	_transmit_int
                                    379 ;	.\config_menu.c:33: byte = asm_shift_out_2();
      001003 12 06 8D         [24]  380 	lcall	_asm_shift_out_2
      001006 85 82 69         [24]  381 	mov	_get_config_byte_10000_29,dpl
                                    382 ;	.\config_menu.c:34: print_byte(&byte);
      001009 90 00 69         [24]  383 	mov	dptr,#_get_config_byte_10000_29
      00100C 75 F0 40         [24]  384 	mov	b, #0x40
      00100F 12 11 8C         [24]  385 	lcall	_print_byte
                                    386 ;	.\config_menu.c:35: transmit_int('.');
      001012 75 82 2E         [24]  387 	mov	dpl, #0x2e
      001015 12 08 43         [24]  388 	lcall	_transmit_int
                                    389 ;	.\config_menu.c:36: byte = asm_shift_out_2();
      001018 12 06 8D         [24]  390 	lcall	_asm_shift_out_2
      00101B 85 82 69         [24]  391 	mov	_get_config_byte_10000_29,dpl
                                    392 ;	.\config_menu.c:37: print_byte(&byte);
      00101E 90 00 69         [24]  393 	mov	dptr,#_get_config_byte_10000_29
      001021 75 F0 40         [24]  394 	mov	b, #0x40
      001024 12 11 8C         [24]  395 	lcall	_print_byte
                                    396 ;	.\config_menu.c:38: end();
      001027 12 05 B0         [24]  397 	lcall	_end
                                    398 ;	.\config_menu.c:40: transmit_string("\r\nSubnet Mask: ");
      00102A 90 1B CF         [24]  399 	mov	dptr,#___str_2
      00102D 75 F0 80         [24]  400 	mov	b, #0x80
      001030 12 08 6D         [24]  401 	lcall	_transmit_string
                                    402 ;	.\config_menu.c:42: begin();
      001033 12 05 AD         [24]  403 	lcall	_begin
                                    404 ;	.\config_menu.c:43: asm_shift_in_2(0x00);
      001036 75 82 00         [24]  405 	mov	dpl, #0x00
      001039 12 05 B3         [24]  406 	lcall	_asm_shift_in_2
                                    407 ;	.\config_menu.c:44: asm_shift_in_2(0x05);
      00103C 75 82 05         [24]  408 	mov	dpl, #0x05
      00103F 12 05 B3         [24]  409 	lcall	_asm_shift_in_2
                                    410 ;	.\config_menu.c:45: asm_shift_in_2(0x00);
      001042 75 82 00         [24]  411 	mov	dpl, #0x00
      001045 12 05 B3         [24]  412 	lcall	_asm_shift_in_2
                                    413 ;	.\config_menu.c:46: byte = asm_shift_out_2();
      001048 12 06 8D         [24]  414 	lcall	_asm_shift_out_2
      00104B 85 82 69         [24]  415 	mov	_get_config_byte_10000_29,dpl
                                    416 ;	.\config_menu.c:47: print_byte(&byte);
      00104E 90 00 69         [24]  417 	mov	dptr,#_get_config_byte_10000_29
      001051 75 F0 40         [24]  418 	mov	b, #0x40
      001054 12 11 8C         [24]  419 	lcall	_print_byte
                                    420 ;	.\config_menu.c:48: transmit_int('.');
      001057 75 82 2E         [24]  421 	mov	dpl, #0x2e
      00105A 12 08 43         [24]  422 	lcall	_transmit_int
                                    423 ;	.\config_menu.c:49: byte = asm_shift_out_2();
      00105D 12 06 8D         [24]  424 	lcall	_asm_shift_out_2
      001060 85 82 69         [24]  425 	mov	_get_config_byte_10000_29,dpl
                                    426 ;	.\config_menu.c:50: print_byte(&byte);
      001063 90 00 69         [24]  427 	mov	dptr,#_get_config_byte_10000_29
      001066 75 F0 40         [24]  428 	mov	b, #0x40
      001069 12 11 8C         [24]  429 	lcall	_print_byte
                                    430 ;	.\config_menu.c:51: transmit_int('.');
      00106C 75 82 2E         [24]  431 	mov	dpl, #0x2e
      00106F 12 08 43         [24]  432 	lcall	_transmit_int
                                    433 ;	.\config_menu.c:52: byte = asm_shift_out_2();
      001072 12 06 8D         [24]  434 	lcall	_asm_shift_out_2
      001075 85 82 69         [24]  435 	mov	_get_config_byte_10000_29,dpl
                                    436 ;	.\config_menu.c:53: print_byte(&byte);
      001078 90 00 69         [24]  437 	mov	dptr,#_get_config_byte_10000_29
      00107B 75 F0 40         [24]  438 	mov	b, #0x40
      00107E 12 11 8C         [24]  439 	lcall	_print_byte
                                    440 ;	.\config_menu.c:54: transmit_int('.');
      001081 75 82 2E         [24]  441 	mov	dpl, #0x2e
      001084 12 08 43         [24]  442 	lcall	_transmit_int
                                    443 ;	.\config_menu.c:55: byte = asm_shift_out_2();
      001087 12 06 8D         [24]  444 	lcall	_asm_shift_out_2
      00108A 85 82 69         [24]  445 	mov	_get_config_byte_10000_29,dpl
                                    446 ;	.\config_menu.c:56: print_byte(&byte);
      00108D 90 00 69         [24]  447 	mov	dptr,#_get_config_byte_10000_29
      001090 75 F0 40         [24]  448 	mov	b, #0x40
      001093 12 11 8C         [24]  449 	lcall	_print_byte
                                    450 ;	.\config_menu.c:57: end();
      001096 12 05 B0         [24]  451 	lcall	_end
                                    452 ;	.\config_menu.c:59: transmit_string("\r\nGateway: ");
      001099 90 1B DF         [24]  453 	mov	dptr,#___str_3
      00109C 75 F0 80         [24]  454 	mov	b, #0x80
      00109F 12 08 6D         [24]  455 	lcall	_transmit_string
                                    456 ;	.\config_menu.c:61: begin();
      0010A2 12 05 AD         [24]  457 	lcall	_begin
                                    458 ;	.\config_menu.c:62: asm_shift_in_2(0x00);
      0010A5 75 82 00         [24]  459 	mov	dpl, #0x00
      0010A8 12 05 B3         [24]  460 	lcall	_asm_shift_in_2
                                    461 ;	.\config_menu.c:63: asm_shift_in_2(0x01);
      0010AB 75 82 01         [24]  462 	mov	dpl, #0x01
      0010AE 12 05 B3         [24]  463 	lcall	_asm_shift_in_2
                                    464 ;	.\config_menu.c:64: asm_shift_in_2(0x00);
      0010B1 75 82 00         [24]  465 	mov	dpl, #0x00
      0010B4 12 05 B3         [24]  466 	lcall	_asm_shift_in_2
                                    467 ;	.\config_menu.c:65: byte = asm_shift_out_2();
      0010B7 12 06 8D         [24]  468 	lcall	_asm_shift_out_2
      0010BA 85 82 69         [24]  469 	mov	_get_config_byte_10000_29,dpl
                                    470 ;	.\config_menu.c:66: print_byte(&byte);
      0010BD 90 00 69         [24]  471 	mov	dptr,#_get_config_byte_10000_29
      0010C0 75 F0 40         [24]  472 	mov	b, #0x40
      0010C3 12 11 8C         [24]  473 	lcall	_print_byte
                                    474 ;	.\config_menu.c:67: transmit_int('.');
      0010C6 75 82 2E         [24]  475 	mov	dpl, #0x2e
      0010C9 12 08 43         [24]  476 	lcall	_transmit_int
                                    477 ;	.\config_menu.c:68: byte = asm_shift_out_2();
      0010CC 12 06 8D         [24]  478 	lcall	_asm_shift_out_2
      0010CF 85 82 69         [24]  479 	mov	_get_config_byte_10000_29,dpl
                                    480 ;	.\config_menu.c:69: print_byte(&byte);
      0010D2 90 00 69         [24]  481 	mov	dptr,#_get_config_byte_10000_29
      0010D5 75 F0 40         [24]  482 	mov	b, #0x40
      0010D8 12 11 8C         [24]  483 	lcall	_print_byte
                                    484 ;	.\config_menu.c:70: transmit_int('.');
      0010DB 75 82 2E         [24]  485 	mov	dpl, #0x2e
      0010DE 12 08 43         [24]  486 	lcall	_transmit_int
                                    487 ;	.\config_menu.c:71: byte = asm_shift_out_2();
      0010E1 12 06 8D         [24]  488 	lcall	_asm_shift_out_2
      0010E4 85 82 69         [24]  489 	mov	_get_config_byte_10000_29,dpl
                                    490 ;	.\config_menu.c:72: print_byte(&byte);
      0010E7 90 00 69         [24]  491 	mov	dptr,#_get_config_byte_10000_29
      0010EA 75 F0 40         [24]  492 	mov	b, #0x40
      0010ED 12 11 8C         [24]  493 	lcall	_print_byte
                                    494 ;	.\config_menu.c:73: transmit_int('.');
      0010F0 75 82 2E         [24]  495 	mov	dpl, #0x2e
      0010F3 12 08 43         [24]  496 	lcall	_transmit_int
                                    497 ;	.\config_menu.c:74: byte = asm_shift_out_2();
      0010F6 12 06 8D         [24]  498 	lcall	_asm_shift_out_2
      0010F9 85 82 69         [24]  499 	mov	_get_config_byte_10000_29,dpl
                                    500 ;	.\config_menu.c:75: print_byte(&byte);
      0010FC 90 00 69         [24]  501 	mov	dptr,#_get_config_byte_10000_29
      0010FF 75 F0 40         [24]  502 	mov	b, #0x40
      001102 12 11 8C         [24]  503 	lcall	_print_byte
                                    504 ;	.\config_menu.c:76: end();
      001105 12 05 B0         [24]  505 	lcall	_end
                                    506 ;	.\config_menu.c:78: transmit_string("\r\nMAC Address: ");
      001108 90 1B EB         [24]  507 	mov	dptr,#___str_4
      00110B 75 F0 80         [24]  508 	mov	b, #0x80
      00110E 12 08 6D         [24]  509 	lcall	_transmit_string
                                    510 ;	.\config_menu.c:80: begin();
      001111 12 05 AD         [24]  511 	lcall	_begin
                                    512 ;	.\config_menu.c:81: asm_shift_in_2(0x00);
      001114 75 82 00         [24]  513 	mov	dpl, #0x00
      001117 12 05 B3         [24]  514 	lcall	_asm_shift_in_2
                                    515 ;	.\config_menu.c:82: asm_shift_in_2(0x09);
      00111A 75 82 09         [24]  516 	mov	dpl, #0x09
      00111D 12 05 B3         [24]  517 	lcall	_asm_shift_in_2
                                    518 ;	.\config_menu.c:83: asm_shift_in_2(0x00);
      001120 75 82 00         [24]  519 	mov	dpl, #0x00
      001123 12 05 B3         [24]  520 	lcall	_asm_shift_in_2
                                    521 ;	.\config_menu.c:84: byte = asm_shift_out_2();
      001126 12 06 8D         [24]  522 	lcall	_asm_shift_out_2
      001129 85 82 69         [24]  523 	mov	_get_config_byte_10000_29,dpl
                                    524 ;	.\config_menu.c:85: print_byte_hex(&byte);
      00112C 90 00 69         [24]  525 	mov	dptr,#_get_config_byte_10000_29
      00112F 75 F0 40         [24]  526 	mov	b, #0x40
      001132 12 12 F3         [24]  527 	lcall	_print_byte_hex
                                    528 ;	.\config_menu.c:86: byte = asm_shift_out_2();
      001135 12 06 8D         [24]  529 	lcall	_asm_shift_out_2
      001138 85 82 69         [24]  530 	mov	_get_config_byte_10000_29,dpl
                                    531 ;	.\config_menu.c:87: print_byte_hex(&byte);
      00113B 90 00 69         [24]  532 	mov	dptr,#_get_config_byte_10000_29
      00113E 75 F0 40         [24]  533 	mov	b, #0x40
      001141 12 12 F3         [24]  534 	lcall	_print_byte_hex
                                    535 ;	.\config_menu.c:88: byte = asm_shift_out_2();
      001144 12 06 8D         [24]  536 	lcall	_asm_shift_out_2
      001147 85 82 69         [24]  537 	mov	_get_config_byte_10000_29,dpl
                                    538 ;	.\config_menu.c:89: print_byte_hex(&byte);
      00114A 90 00 69         [24]  539 	mov	dptr,#_get_config_byte_10000_29
      00114D 75 F0 40         [24]  540 	mov	b, #0x40
      001150 12 12 F3         [24]  541 	lcall	_print_byte_hex
                                    542 ;	.\config_menu.c:90: byte = asm_shift_out_2();
      001153 12 06 8D         [24]  543 	lcall	_asm_shift_out_2
      001156 85 82 69         [24]  544 	mov	_get_config_byte_10000_29,dpl
                                    545 ;	.\config_menu.c:91: print_byte_hex(&byte);
      001159 90 00 69         [24]  546 	mov	dptr,#_get_config_byte_10000_29
      00115C 75 F0 40         [24]  547 	mov	b, #0x40
      00115F 12 12 F3         [24]  548 	lcall	_print_byte_hex
                                    549 ;	.\config_menu.c:92: byte = asm_shift_out_2();
      001162 12 06 8D         [24]  550 	lcall	_asm_shift_out_2
      001165 85 82 69         [24]  551 	mov	_get_config_byte_10000_29,dpl
                                    552 ;	.\config_menu.c:93: print_byte_hex(&byte);
      001168 90 00 69         [24]  553 	mov	dptr,#_get_config_byte_10000_29
      00116B 75 F0 40         [24]  554 	mov	b, #0x40
      00116E 12 12 F3         [24]  555 	lcall	_print_byte_hex
                                    556 ;	.\config_menu.c:94: byte = asm_shift_out_2();
      001171 12 06 8D         [24]  557 	lcall	_asm_shift_out_2
      001174 85 82 69         [24]  558 	mov	_get_config_byte_10000_29,dpl
                                    559 ;	.\config_menu.c:95: print_byte_hex(&byte);
      001177 90 00 69         [24]  560 	mov	dptr,#_get_config_byte_10000_29
      00117A 75 F0 40         [24]  561 	mov	b, #0x40
      00117D 12 12 F3         [24]  562 	lcall	_print_byte_hex
                                    563 ;	.\config_menu.c:96: end(); 
      001180 12 05 B0         [24]  564 	lcall	_end
                                    565 ;	.\config_menu.c:98: transmit_string("\r\n");
      001183 90 1B FB         [24]  566 	mov	dptr,#___str_5
      001186 75 F0 80         [24]  567 	mov	b, #0x80
                                    568 ;	.\config_menu.c:99: }
      001189 02 08 6D         [24]  569 	ljmp	_transmit_string
                                    570 ;------------------------------------------------------------
                                    571 ;Allocation info for local variables in function 'print_byte'
                                    572 ;------------------------------------------------------------
                                    573 ;byte                      Allocated to registers r5 r6 r7 
                                    574 ;hundred_print             Allocated to registers r4 
                                    575 ;------------------------------------------------------------
                                    576 ;	.\config_menu.c:101: void print_byte(unsigned char *byte){
                                    577 ;	-----------------------------------------
                                    578 ;	 function print_byte
                                    579 ;	-----------------------------------------
      00118C                        580 _print_byte:
                                    581 ;	.\config_menu.c:102: unsigned char hundred_print = 0;
                                    582 ;	.\config_menu.c:103: if(*byte/100 != 0){
      00118C AD 82            [24]  583 	mov	r5,dpl
      00118E AE 83            [24]  584 	mov	r6,dph
      001190 AF F0            [24]  585 	mov	r7,b
      001192 7C 00            [12]  586 	mov	r4,#0x00
      001194 12 19 3D         [24]  587 	lcall	__gptrget
      001197 FB               [12]  588 	mov	r3,a
      001198 7A 00            [12]  589 	mov	r2,#0x00
      00119A 75 7E 64         [24]  590 	mov	__divsint_PARM_2,#0x64
      00119D 8C 7F            [24]  591 	mov	(__divsint_PARM_2 + 1),r4
      00119F 8B 82            [24]  592 	mov	dpl, r3
      0011A1 8A 83            [24]  593 	mov	dph, r2
      0011A3 C0 07            [24]  594 	push	ar7
      0011A5 C0 06            [24]  595 	push	ar6
      0011A7 C0 05            [24]  596 	push	ar5
      0011A9 C0 04            [24]  597 	push	ar4
      0011AB 12 19 8F         [24]  598 	lcall	__divsint
      0011AE AA 82            [24]  599 	mov	r2, dpl
      0011B0 AB 83            [24]  600 	mov	r3, dph
      0011B2 D0 04            [24]  601 	pop	ar4
      0011B4 D0 05            [24]  602 	pop	ar5
      0011B6 D0 06            [24]  603 	pop	ar6
      0011B8 D0 07            [24]  604 	pop	ar7
      0011BA EA               [12]  605 	mov	a,r2
      0011BB 4B               [12]  606 	orl	a,r3
      0011BC 60 16            [24]  607 	jz	00102$
                                    608 ;	.\config_menu.c:104: transmit_int((*byte/100) + '0');
      0011BE 74 30            [12]  609 	mov	a,#0x30
      0011C0 2A               [12]  610 	add	a, r2
      0011C1 F5 82            [12]  611 	mov	dpl,a
      0011C3 C0 07            [24]  612 	push	ar7
      0011C5 C0 06            [24]  613 	push	ar6
      0011C7 C0 05            [24]  614 	push	ar5
      0011C9 12 08 43         [24]  615 	lcall	_transmit_int
      0011CC D0 05            [24]  616 	pop	ar5
      0011CE D0 06            [24]  617 	pop	ar6
      0011D0 D0 07            [24]  618 	pop	ar7
                                    619 ;	.\config_menu.c:105: hundred_print = 1;
      0011D2 7C 01            [12]  620 	mov	r4,#0x01
      0011D4                        621 00102$:
                                    622 ;	.\config_menu.c:108: *byte %= 100;
      0011D4 8D 82            [24]  623 	mov	dpl,r5
      0011D6 8E 83            [24]  624 	mov	dph,r6
      0011D8 8F F0            [24]  625 	mov	b,r7
      0011DA 12 19 3D         [24]  626 	lcall	__gptrget
      0011DD FB               [12]  627 	mov	r3,a
      0011DE 7A 00            [12]  628 	mov	r2,#0x00
      0011E0 75 7E 64         [24]  629 	mov	__modsint_PARM_2,#0x64
      0011E3 8A 7F            [24]  630 	mov	(__modsint_PARM_2 + 1),r2
      0011E5 8B 82            [24]  631 	mov	dpl, r3
      0011E7 8A 83            [24]  632 	mov	dph, r2
      0011E9 C0 07            [24]  633 	push	ar7
      0011EB C0 06            [24]  634 	push	ar6
      0011ED C0 05            [24]  635 	push	ar5
      0011EF C0 04            [24]  636 	push	ar4
      0011F1 12 19 59         [24]  637 	lcall	__modsint
      0011F4 AA 82            [24]  638 	mov	r2, dpl
      0011F6 D0 04            [24]  639 	pop	ar4
      0011F8 D0 05            [24]  640 	pop	ar5
      0011FA D0 06            [24]  641 	pop	ar6
      0011FC D0 07            [24]  642 	pop	ar7
      0011FE 8D 82            [24]  643 	mov	dpl,r5
      001200 8E 83            [24]  644 	mov	dph,r6
      001202 8F F0            [24]  645 	mov	b,r7
      001204 EA               [12]  646 	mov	a,r2
      001205 12 18 8F         [24]  647 	lcall	__gptrput
                                    648 ;	.\config_menu.c:110: if(*byte/10 == 0 && hundred_print == 1){
      001208 7B 00            [12]  649 	mov	r3,#0x00
      00120A 75 7E 0A         [24]  650 	mov	__divsint_PARM_2,#0x0a
      00120D 8B 7F            [24]  651 	mov	(__divsint_PARM_2 + 1),r3
      00120F 8A 82            [24]  652 	mov	dpl, r2
      001211 8B 83            [24]  653 	mov	dph, r3
      001213 C0 07            [24]  654 	push	ar7
      001215 C0 06            [24]  655 	push	ar6
      001217 C0 05            [24]  656 	push	ar5
      001219 C0 04            [24]  657 	push	ar4
      00121B 12 19 8F         [24]  658 	lcall	__divsint
      00121E E5 82            [12]  659 	mov	a, dpl
      001220 85 83 F0         [24]  660 	mov	b, dph
      001223 D0 04            [24]  661 	pop	ar4
      001225 D0 05            [24]  662 	pop	ar5
      001227 D0 06            [24]  663 	pop	ar6
      001229 D0 07            [24]  664 	pop	ar7
      00122B 45 F0            [12]  665 	orl	a,b
      00122D 70 31            [24]  666 	jnz	00104$
      00122F BC 01 2E         [24]  667 	cjne	r4,#0x01,00104$
                                    668 ;	.\config_menu.c:111: transmit_int((*byte/10) + '0');
      001232 8D 82            [24]  669 	mov	dpl,r5
      001234 8E 83            [24]  670 	mov	dph,r6
      001236 8F F0            [24]  671 	mov	b,r7
      001238 12 19 3D         [24]  672 	lcall	__gptrget
      00123B FC               [12]  673 	mov	r4,a
      00123C 7B 00            [12]  674 	mov	r3,#0x00
      00123E 75 7E 0A         [24]  675 	mov	__divsint_PARM_2,#0x0a
      001241 8B 7F            [24]  676 	mov	(__divsint_PARM_2 + 1),r3
      001243 8C 82            [24]  677 	mov	dpl, r4
      001245 8B 83            [24]  678 	mov	dph, r3
      001247 C0 07            [24]  679 	push	ar7
      001249 C0 06            [24]  680 	push	ar6
      00124B C0 05            [24]  681 	push	ar5
      00124D 12 19 8F         [24]  682 	lcall	__divsint
      001250 AB 82            [24]  683 	mov	r3, dpl
      001252 74 30            [12]  684 	mov	a,#0x30
      001254 2B               [12]  685 	add	a, r3
      001255 F5 82            [12]  686 	mov	dpl,a
      001257 12 08 43         [24]  687 	lcall	_transmit_int
      00125A D0 05            [24]  688 	pop	ar5
      00125C D0 06            [24]  689 	pop	ar6
      00125E D0 07            [24]  690 	pop	ar7
      001260                        691 00104$:
                                    692 ;	.\config_menu.c:113: if(*byte/10 != 0){
      001260 8D 82            [24]  693 	mov	dpl,r5
      001262 8E 83            [24]  694 	mov	dph,r6
      001264 8F F0            [24]  695 	mov	b,r7
      001266 12 19 3D         [24]  696 	lcall	__gptrget
      001269 FC               [12]  697 	mov	r4,a
      00126A 7B 00            [12]  698 	mov	r3,#0x00
      00126C 75 7E 0A         [24]  699 	mov	__divsint_PARM_2,#0x0a
      00126F 8B 7F            [24]  700 	mov	(__divsint_PARM_2 + 1),r3
      001271 8C 82            [24]  701 	mov	dpl, r4
      001273 8B 83            [24]  702 	mov	dph, r3
      001275 C0 07            [24]  703 	push	ar7
      001277 C0 06            [24]  704 	push	ar6
      001279 C0 05            [24]  705 	push	ar5
      00127B 12 19 8F         [24]  706 	lcall	__divsint
      00127E E5 82            [12]  707 	mov	a, dpl
      001280 85 83 F0         [24]  708 	mov	b, dph
      001283 D0 05            [24]  709 	pop	ar5
      001285 D0 06            [24]  710 	pop	ar6
      001287 D0 07            [24]  711 	pop	ar7
      001289 45 F0            [12]  712 	orl	a,b
      00128B 60 2E            [24]  713 	jz	00107$
                                    714 ;	.\config_menu.c:114: transmit_int((*byte/10) + '0');
      00128D 8D 82            [24]  715 	mov	dpl,r5
      00128F 8E 83            [24]  716 	mov	dph,r6
      001291 8F F0            [24]  717 	mov	b,r7
      001293 12 19 3D         [24]  718 	lcall	__gptrget
      001296 FC               [12]  719 	mov	r4,a
      001297 7B 00            [12]  720 	mov	r3,#0x00
      001299 75 7E 0A         [24]  721 	mov	__divsint_PARM_2,#0x0a
      00129C 8B 7F            [24]  722 	mov	(__divsint_PARM_2 + 1),r3
      00129E 8C 82            [24]  723 	mov	dpl, r4
      0012A0 8B 83            [24]  724 	mov	dph, r3
      0012A2 C0 07            [24]  725 	push	ar7
      0012A4 C0 06            [24]  726 	push	ar6
      0012A6 C0 05            [24]  727 	push	ar5
      0012A8 12 19 8F         [24]  728 	lcall	__divsint
      0012AB AB 82            [24]  729 	mov	r3, dpl
      0012AD 74 30            [12]  730 	mov	a,#0x30
      0012AF 2B               [12]  731 	add	a, r3
      0012B0 F5 82            [12]  732 	mov	dpl,a
      0012B2 12 08 43         [24]  733 	lcall	_transmit_int
      0012B5 D0 05            [24]  734 	pop	ar5
      0012B7 D0 06            [24]  735 	pop	ar6
      0012B9 D0 07            [24]  736 	pop	ar7
      0012BB                        737 00107$:
                                    738 ;	.\config_menu.c:117: *byte %= 10;
      0012BB 8D 82            [24]  739 	mov	dpl,r5
      0012BD 8E 83            [24]  740 	mov	dph,r6
      0012BF 8F F0            [24]  741 	mov	b,r7
      0012C1 12 19 3D         [24]  742 	lcall	__gptrget
      0012C4 FC               [12]  743 	mov	r4,a
      0012C5 7B 00            [12]  744 	mov	r3,#0x00
      0012C7 75 7E 0A         [24]  745 	mov	__modsint_PARM_2,#0x0a
      0012CA 8B 7F            [24]  746 	mov	(__modsint_PARM_2 + 1),r3
      0012CC 8C 82            [24]  747 	mov	dpl, r4
      0012CE 8B 83            [24]  748 	mov	dph, r3
      0012D0 C0 07            [24]  749 	push	ar7
      0012D2 C0 06            [24]  750 	push	ar6
      0012D4 C0 05            [24]  751 	push	ar5
      0012D6 12 19 59         [24]  752 	lcall	__modsint
      0012D9 AB 82            [24]  753 	mov	r3, dpl
      0012DB D0 05            [24]  754 	pop	ar5
      0012DD D0 06            [24]  755 	pop	ar6
      0012DF D0 07            [24]  756 	pop	ar7
      0012E1 8D 82            [24]  757 	mov	dpl,r5
      0012E3 8E 83            [24]  758 	mov	dph,r6
      0012E5 8F F0            [24]  759 	mov	b,r7
      0012E7 EB               [12]  760 	mov	a,r3
      0012E8 12 18 8F         [24]  761 	lcall	__gptrput
                                    762 ;	.\config_menu.c:119: transmit_int((*byte/1) + '0');
      0012EB 74 30            [12]  763 	mov	a,#0x30
      0012ED 2B               [12]  764 	add	a, r3
      0012EE F5 82            [12]  765 	mov	dpl,a
                                    766 ;	.\config_menu.c:120: }
      0012F0 02 08 43         [24]  767 	ljmp	_transmit_int
                                    768 ;------------------------------------------------------------
                                    769 ;Allocation info for local variables in function 'print_byte_hex'
                                    770 ;------------------------------------------------------------
                                    771 ;byte                      Allocated to registers r5 r6 r7 
                                    772 ;------------------------------------------------------------
                                    773 ;	.\config_menu.c:122: void print_byte_hex(unsigned char *byte){
                                    774 ;	-----------------------------------------
                                    775 ;	 function print_byte_hex
                                    776 ;	-----------------------------------------
      0012F3                        777 _print_byte_hex:
                                    778 ;	.\config_menu.c:123: if((*byte >> 4) >= 10){
      0012F3 AD 82            [24]  779 	mov	r5,dpl
      0012F5 AE 83            [24]  780 	mov	r6,dph
      0012F7 AF F0            [24]  781 	mov	r7,b
      0012F9 12 19 3D         [24]  782 	lcall	__gptrget
      0012FC C4               [12]  783 	swap	a
      0012FD 54 0F            [12]  784 	anl	a,#0x0f
      0012FF FC               [12]  785 	mov	r4,a
      001300 BC 0A 00         [24]  786 	cjne	r4,#0x0a,00121$
      001303                        787 00121$:
      001303 40 18            [24]  788 	jc	00102$
                                    789 ;	.\config_menu.c:124: transmit_int((*byte >> 4) + 'A' - 10);
      001305 8C 03            [24]  790 	mov	ar3,r4
      001307 74 37            [12]  791 	mov	a,#0x37
      001309 2B               [12]  792 	add	a, r3
      00130A F5 82            [12]  793 	mov	dpl,a
      00130C C0 07            [24]  794 	push	ar7
      00130E C0 06            [24]  795 	push	ar6
      001310 C0 05            [24]  796 	push	ar5
      001312 12 08 43         [24]  797 	lcall	_transmit_int
      001315 D0 05            [24]  798 	pop	ar5
      001317 D0 06            [24]  799 	pop	ar6
      001319 D0 07            [24]  800 	pop	ar7
      00131B 80 14            [24]  801 	sjmp	00103$
      00131D                        802 00102$:
                                    803 ;	.\config_menu.c:126: transmit_int((*byte >> 4) + '0');
      00131D 74 30            [12]  804 	mov	a,#0x30
      00131F 2C               [12]  805 	add	a, r4
      001320 F5 82            [12]  806 	mov	dpl,a
      001322 C0 07            [24]  807 	push	ar7
      001324 C0 06            [24]  808 	push	ar6
      001326 C0 05            [24]  809 	push	ar5
      001328 12 08 43         [24]  810 	lcall	_transmit_int
      00132B D0 05            [24]  811 	pop	ar5
      00132D D0 06            [24]  812 	pop	ar6
      00132F D0 07            [24]  813 	pop	ar7
      001331                        814 00103$:
                                    815 ;	.\config_menu.c:129: if((*byte & 0x0F) >= 10){
      001331 8D 82            [24]  816 	mov	dpl,r5
      001333 8E 83            [24]  817 	mov	dph,r6
      001335 8F F0            [24]  818 	mov	b,r7
      001337 12 19 3D         [24]  819 	lcall	__gptrget
      00133A FF               [12]  820 	mov	r7,a
      00133B FE               [12]  821 	mov	r6,a
      00133C 53 06 0F         [24]  822 	anl	ar6,#0x0f
      00133F BE 0A 00         [24]  823 	cjne	r6,#0x0a,00123$
      001342                        824 00123$:
      001342 40 0E            [24]  825 	jc	00105$
                                    826 ;	.\config_menu.c:130: transmit_int((*byte & 0x0F) + 'A' - 10);
      001344 8F 06            [24]  827 	mov	ar6,r7
      001346 74 0F            [12]  828 	mov	a,#0x0f
      001348 5E               [12]  829 	anl	a,r6
      001349 24 37            [12]  830 	add	a, #0x37
      00134B F5 82            [12]  831 	mov	dpl,a
      00134D 12 08 43         [24]  832 	lcall	_transmit_int
      001350 80 0A            [24]  833 	sjmp	00106$
      001352                        834 00105$:
                                    835 ;	.\config_menu.c:132: transmit_int((*byte & 0x0F) + '0');
      001352 74 0F            [12]  836 	mov	a,#0x0f
      001354 5F               [12]  837 	anl	a,r7
      001355 24 30            [12]  838 	add	a, #0x30
      001357 F5 82            [12]  839 	mov	dpl,a
      001359 12 08 43         [24]  840 	lcall	_transmit_int
      00135C                        841 00106$:
                                    842 ;	.\config_menu.c:134: transmit_int(' ');
      00135C 75 82 20         [24]  843 	mov	dpl, #0x20
                                    844 ;	.\config_menu.c:135: }
      00135F 02 08 43         [24]  845 	ljmp	_transmit_int
                                    846 ;------------------------------------------------------------
                                    847 ;Allocation info for local variables in function 'process_cmd'
                                    848 ;------------------------------------------------------------
                                    849 ;cmd_val                   Allocated with name '_process_cmd_cmd_val_10000_42'
                                    850 ;cmd_sum                   Allocated to registers r6 r7 
                                    851 ;i                         Allocated to registers r6 r7 
                                    852 ;------------------------------------------------------------
                                    853 ;	.\config_menu.c:137: void process_cmd(void){
                                    854 ;	-----------------------------------------
                                    855 ;	 function process_cmd
                                    856 ;	-----------------------------------------
      001362                        857 _process_cmd:
                                    858 ;	.\config_menu.c:139: int cmd_sum = 0;
      001362 7E 00            [12]  859 	mov	r6,#0x00
      001364 7F 00            [12]  860 	mov	r7,#0x00
                                    861 ;	.\config_menu.c:141: while(buffer[buffer_idx] != '=' && buffer[buffer_idx] != 0){
      001366                        862 00102$:
      001366 E5 5A            [12]  863 	mov	a,_buffer_idx
      001368 24 3D            [12]  864 	add	a, #_buffer
      00136A F9               [12]  865 	mov	r1,a
      00136B 87 05            [24]  866 	mov	ar5,@r1
      00136D BD 3D 02         [24]  867 	cjne	r5,#0x3d,00272$
      001370 80 0F            [24]  868 	sjmp	00104$
      001372                        869 00272$:
      001372 ED               [12]  870 	mov	a,r5
      001373 60 0C            [24]  871 	jz	00104$
                                    872 ;	.\config_menu.c:142: cmd_sum += buffer[buffer_idx];
      001375 7C 00            [12]  873 	mov	r4,#0x00
      001377 ED               [12]  874 	mov	a,r5
      001378 2E               [12]  875 	add	a, r6
      001379 FE               [12]  876 	mov	r6,a
      00137A EC               [12]  877 	mov	a,r4
      00137B 3F               [12]  878 	addc	a, r7
      00137C FF               [12]  879 	mov	r7,a
                                    880 ;	.\config_menu.c:143: buffer_idx++;
      00137D 05 5A            [12]  881 	inc	_buffer_idx
      00137F 80 E5            [24]  882 	sjmp	00102$
      001381                        883 00104$:
                                    884 ;	.\config_menu.c:145: buffer_idx++;
      001381 05 5A            [12]  885 	inc	_buffer_idx
                                    886 ;	.\config_menu.c:147: switch (cmd_sum){
      001383 E4               [12]  887 	clr	a
      001384 BE 99 04         [24]  888 	cjne	r6,#0x99,00274$
      001387 BF 00 01         [24]  889 	cjne	r7,#0x00,00274$
      00138A 04               [12]  890 	inc	a
      00138B                        891 00274$:
      00138B FD               [12]  892 	mov	r5,a
      00138C 70 59            [24]  893 	jnz	00111$
      00138E BE D1 06         [24]  894 	cjne	r6,#0xd1,00277$
      001391 BF 00 03         [24]  895 	cjne	r7,#0x00,00277$
      001394 02 14 2C         [24]  896 	ljmp	00114$
      001397                        897 00277$:
      001397 BE EA 05         [24]  898 	cjne	r6,#0xea,00278$
      00139A BF 00 02         [24]  899 	cjne	r7,#0x00,00278$
      00139D 80 5F            [24]  900 	sjmp	00112$
      00139F                        901 00278$:
      00139F BE FB 05         [24]  902 	cjne	r6,#0xfb,00279$
      0013A2 BF 00 02         [24]  903 	cjne	r7,#0x00,00279$
      0013A5 80 14            [24]  904 	sjmp	00105$
      0013A7                        905 00279$:
      0013A7 BE 21 05         [24]  906 	cjne	r6,#0x21,00280$
      0013AA BF 01 02         [24]  907 	cjne	r7,#0x01,00280$
      0013AD 80 66            [24]  908 	sjmp	00113$
      0013AF                        909 00280$:
      0013AF BE 25 06         [24]  910 	cjne	r6,#0x25,00281$
      0013B2 BF 01 03         [24]  911 	cjne	r7,#0x01,00281$
      0013B5 02 14 43         [24]  912 	ljmp	00115$
      0013B8                        913 00281$:
      0013B8 02 14 5A         [24]  914 	ljmp	00116$
                                    915 ;	.\config_menu.c:149: case 251:
      0013BB                        916 00105$:
                                    917 ;	.\config_menu.c:150: if((buffer[buffer_idx] < '0' || buffer[buffer_idx] > '9') || buffer[buffer_idx + 1] != '.'){
      0013BB E5 5A            [12]  918 	mov	a,_buffer_idx
      0013BD 24 3D            [12]  919 	add	a, #_buffer
      0013BF F9               [12]  920 	mov	r1,a
      0013C0 87 04            [24]  921 	mov	ar4,@r1
      0013C2 BC 30 00         [24]  922 	cjne	r4,#0x30,00282$
      0013C5                        923 00282$:
      0013C5 40 12            [24]  924 	jc	00106$
      0013C7 EC               [12]  925 	mov	a,r4
      0013C8 24 C6            [12]  926 	add	a,#0xff - 0x39
      0013CA 40 0D            [24]  927 	jc	00106$
      0013CC E5 5A            [12]  928 	mov	a,_buffer_idx
      0013CE 04               [12]  929 	inc	a
      0013CF 24 3D            [12]  930 	add	a, #_buffer
      0013D1 F9               [12]  931 	mov	r1,a
      0013D2 87 03            [24]  932 	mov	ar3,@r1
      0013D4 BB 2E 02         [24]  933 	cjne	r3,#0x2e,00285$
      0013D7 80 06            [24]  934 	sjmp	00107$
      0013D9                        935 00285$:
      0013D9                        936 00106$:
                                    937 ;	.\config_menu.c:151: invalid_cmd_flag = 1;
      0013D9 75 5D 01         [24]  938 	mov	_invalid_cmd_flag,#0x01
      0013DC 02 14 5D         [24]  939 	ljmp	00117$
      0013DF                        940 00107$:
                                    941 ;	.\config_menu.c:153: cmd_val[0] = buffer[buffer_idx] - '0';
      0013DF EC               [12]  942 	mov	a,r4
      0013E0 24 D0            [12]  943 	add	a,#0xd0
      0013E2 F5 6A            [12]  944 	mov	_process_cmd_cmd_val_10000_42,a
                                    945 ;	.\config_menu.c:155: break;
      0013E4 02 14 5D         [24]  946 	ljmp	00117$
                                    947 ;	.\config_menu.c:157: case 153:
      0013E7                        948 00111$:
                                    949 ;	.\config_menu.c:158: process_byte(cmd_val);
      0013E7 90 00 6A         [24]  950 	mov	dptr,#_process_cmd_cmd_val_10000_42
      0013EA 75 F0 40         [24]  951 	mov	b, #0x40
      0013ED C0 07            [24]  952 	push	ar7
      0013EF C0 06            [24]  953 	push	ar6
      0013F1 C0 05            [24]  954 	push	ar5
      0013F3 12 16 2C         [24]  955 	lcall	_process_byte
      0013F6 D0 05            [24]  956 	pop	ar5
      0013F8 D0 06            [24]  957 	pop	ar6
      0013FA D0 07            [24]  958 	pop	ar7
                                    959 ;	.\config_menu.c:159: break;
                                    960 ;	.\config_menu.c:161: case 234:
      0013FC 80 5F            [24]  961 	sjmp	00117$
      0013FE                        962 00112$:
                                    963 ;	.\config_menu.c:162: process_byte(cmd_val);
      0013FE 90 00 6A         [24]  964 	mov	dptr,#_process_cmd_cmd_val_10000_42
      001401 75 F0 40         [24]  965 	mov	b, #0x40
      001404 C0 07            [24]  966 	push	ar7
      001406 C0 06            [24]  967 	push	ar6
      001408 C0 05            [24]  968 	push	ar5
      00140A 12 16 2C         [24]  969 	lcall	_process_byte
      00140D D0 05            [24]  970 	pop	ar5
      00140F D0 06            [24]  971 	pop	ar6
      001411 D0 07            [24]  972 	pop	ar7
                                    973 ;	.\config_menu.c:163: break;
                                    974 ;	.\config_menu.c:165: case 289:
      001413 80 48            [24]  975 	sjmp	00117$
      001415                        976 00113$:
                                    977 ;	.\config_menu.c:166: process_byte(cmd_val);
      001415 90 00 6A         [24]  978 	mov	dptr,#_process_cmd_cmd_val_10000_42
      001418 75 F0 40         [24]  979 	mov	b, #0x40
      00141B C0 07            [24]  980 	push	ar7
      00141D C0 06            [24]  981 	push	ar6
      00141F C0 05            [24]  982 	push	ar5
      001421 12 16 2C         [24]  983 	lcall	_process_byte
      001424 D0 05            [24]  984 	pop	ar5
      001426 D0 06            [24]  985 	pop	ar6
      001428 D0 07            [24]  986 	pop	ar7
                                    987 ;	.\config_menu.c:167: break;
                                    988 ;	.\config_menu.c:169: case 209:
      00142A 80 31            [24]  989 	sjmp	00117$
      00142C                        990 00114$:
                                    991 ;	.\config_menu.c:170: process_mac(cmd_val);
      00142C 90 00 6A         [24]  992 	mov	dptr,#_process_cmd_cmd_val_10000_42
      00142F 75 F0 40         [24]  993 	mov	b, #0x40
      001432 C0 07            [24]  994 	push	ar7
      001434 C0 06            [24]  995 	push	ar6
      001436 C0 05            [24]  996 	push	ar5
      001438 12 17 51         [24]  997 	lcall	_process_mac
      00143B D0 05            [24]  998 	pop	ar5
      00143D D0 06            [24]  999 	pop	ar6
      00143F D0 07            [24] 1000 	pop	ar7
                                   1001 ;	.\config_menu.c:171: break;
                                   1002 ;	.\config_menu.c:173: case 293:
      001441 80 1A            [24] 1003 	sjmp	00117$
      001443                       1004 00115$:
                                   1005 ;	.\config_menu.c:174: process_mode(cmd_val);
      001443 90 00 6A         [24] 1006 	mov	dptr,#_process_cmd_cmd_val_10000_42
      001446 75 F0 40         [24] 1007 	mov	b, #0x40
      001449 C0 07            [24] 1008 	push	ar7
      00144B C0 06            [24] 1009 	push	ar6
      00144D C0 05            [24] 1010 	push	ar5
      00144F 12 18 40         [24] 1011 	lcall	_process_mode
      001452 D0 05            [24] 1012 	pop	ar5
      001454 D0 06            [24] 1013 	pop	ar6
      001456 D0 07            [24] 1014 	pop	ar7
                                   1015 ;	.\config_menu.c:175: break;
                                   1016 ;	.\config_menu.c:176: default:
      001458 80 03            [24] 1017 	sjmp	00117$
      00145A                       1018 00116$:
                                   1019 ;	.\config_menu.c:178: invalid_cmd_flag = 1;
      00145A 75 5D 01         [24] 1020 	mov	_invalid_cmd_flag,#0x01
                                   1021 ;	.\config_menu.c:180: }
      00145D                       1022 00117$:
                                   1023 ;	.\config_menu.c:182: if(invalid_cmd_flag == 1){
      00145D 74 01            [12] 1024 	mov	a,#0x01
      00145F B5 5D 0C         [24] 1025 	cjne	a,_invalid_cmd_flag,00131$
                                   1026 ;	.\config_menu.c:183: transmit_string("Invalid Command Format\r\n");
      001462 90 1B FE         [24] 1027 	mov	dptr,#___str_6
      001465 75 F0 80         [24] 1028 	mov	b, #0x80
      001468 12 08 6D         [24] 1029 	lcall	_transmit_string
      00146B 02 16 09         [24] 1030 	ljmp	00132$
      00146E                       1031 00131$:
                                   1032 ;	.\config_menu.c:185: switch (cmd_sum){
      00146E ED               [12] 1033 	mov	a,r5
      00146F 70 40            [24] 1034 	jnz	00119$
      001471 BE D1 06         [24] 1035 	cjne	r6,#0xd1,00289$
      001474 BF 00 03         [24] 1036 	cjne	r7,#0x00,00289$
      001477 02 15 4A         [24] 1037 	ljmp	00122$
      00147A                       1038 00289$:
      00147A BE EA 05         [24] 1039 	cjne	r6,#0xea,00290$
      00147D BF 00 02         [24] 1040 	cjne	r7,#0x00,00290$
      001480 80 62            [24] 1041 	sjmp	00120$
      001482                       1042 00290$:
      001482 BE FB 05         [24] 1043 	cjne	r6,#0xfb,00291$
      001485 BF 00 02         [24] 1044 	cjne	r7,#0x00,00291$
      001488 80 15            [24] 1045 	sjmp	00118$
      00148A                       1046 00291$:
      00148A BE 21 06         [24] 1047 	cjne	r6,#0x21,00292$
      00148D BF 01 03         [24] 1048 	cjne	r7,#0x01,00292$
      001490 02 15 17         [24] 1049 	ljmp	00121$
      001493                       1050 00292$:
      001493 BE 25 06         [24] 1051 	cjne	r6,#0x25,00293$
      001496 BF 01 03         [24] 1052 	cjne	r7,#0x01,00293$
      001499 02 15 7D         [24] 1053 	ljmp	00123$
      00149C                       1054 00293$:
      00149C 02 16 09         [24] 1055 	ljmp	00132$
                                   1056 ;	.\config_menu.c:186: case 251:
      00149F                       1057 00118$:
                                   1058 ;	.\config_menu.c:187: rtu = cmd_val[0];
      00149F 85 6A 61         [24] 1059 	mov	_rtu,_process_cmd_cmd_val_10000_42
                                   1060 ;	.\config_menu.c:188: transmit_string("Successfully updated RTU\r\n");
      0014A2 90 1C 17         [24] 1061 	mov	dptr,#___str_7
      0014A5 75 F0 80         [24] 1062 	mov	b, #0x80
      0014A8 12 08 6D         [24] 1063 	lcall	_transmit_string
                                   1064 ;	.\config_menu.c:189: mode = last_polling_mode;
      0014AB 85 5E 5C         [24] 1065 	mov	_mode,_last_polling_mode
                                   1066 ;	.\config_menu.c:190: break;
      0014AE 02 16 09         [24] 1067 	ljmp	00132$
                                   1068 ;	.\config_menu.c:191: case 153:
      0014B1                       1069 00119$:
                                   1070 ;	.\config_menu.c:192: send_4(0x000F, 0x04, cmd_val[0], cmd_val[1], cmd_val[2], cmd_val[3]);
      0014B1 85 6A 19         [24] 1071 	mov	_send_4_PARM_3,_process_cmd_cmd_val_10000_42
      0014B4 75 1A 00         [24] 1072 	mov	(_send_4_PARM_3 + 1),#0x00
      0014B7 85 6B 1B         [24] 1073 	mov	_send_4_PARM_4,(_process_cmd_cmd_val_10000_42 + 0x0001)
      0014BA 75 1C 00         [24] 1074 	mov	(_send_4_PARM_4 + 1),#0x00
      0014BD 85 6C 1D         [24] 1075 	mov	_send_4_PARM_5,(_process_cmd_cmd_val_10000_42 + 0x0002)
      0014C0 75 1E 00         [24] 1076 	mov	(_send_4_PARM_5 + 1),#0x00
      0014C3 85 6D 1F         [24] 1077 	mov	_send_4_PARM_6,(_process_cmd_cmd_val_10000_42 + 0x0003)
      0014C6 75 20 00         [24] 1078 	mov	(_send_4_PARM_6 + 1),#0x00
      0014C9 75 17 04         [24] 1079 	mov	_send_4_PARM_2,#0x04
      0014CC 75 18 00         [24] 1080 	mov	(_send_4_PARM_2 + 1),#0x00
      0014CF 90 00 0F         [24] 1081 	mov	dptr,#0x000f
      0014D2 12 04 A0         [24] 1082 	lcall	_send_4
                                   1083 ;	.\config_menu.c:193: transmit_string("Successfully updated IP");
      0014D5 90 1C 32         [24] 1084 	mov	dptr,#___str_8
      0014D8 75 F0 80         [24] 1085 	mov	b, #0x80
      0014DB 12 08 6D         [24] 1086 	lcall	_transmit_string
                                   1087 ;	.\config_menu.c:194: mode = last_polling_mode;
      0014DE 85 5E 5C         [24] 1088 	mov	_mode,_last_polling_mode
                                   1089 ;	.\config_menu.c:195: break;
      0014E1 02 16 09         [24] 1090 	ljmp	00132$
                                   1091 ;	.\config_menu.c:196: case 234:
      0014E4                       1092 00120$:
                                   1093 ;	.\config_menu.c:197: send_4(0x0005, 0x04, cmd_val[0], cmd_val[1], cmd_val[2], cmd_val[3]);
      0014E4 85 6A 19         [24] 1094 	mov	_send_4_PARM_3,_process_cmd_cmd_val_10000_42
      0014E7 75 1A 00         [24] 1095 	mov	(_send_4_PARM_3 + 1),#0x00
      0014EA 85 6B 1B         [24] 1096 	mov	_send_4_PARM_4,(_process_cmd_cmd_val_10000_42 + 0x0001)
      0014ED 75 1C 00         [24] 1097 	mov	(_send_4_PARM_4 + 1),#0x00
      0014F0 85 6C 1D         [24] 1098 	mov	_send_4_PARM_5,(_process_cmd_cmd_val_10000_42 + 0x0002)
      0014F3 75 1E 00         [24] 1099 	mov	(_send_4_PARM_5 + 1),#0x00
      0014F6 85 6D 1F         [24] 1100 	mov	_send_4_PARM_6,(_process_cmd_cmd_val_10000_42 + 0x0003)
      0014F9 75 20 00         [24] 1101 	mov	(_send_4_PARM_6 + 1),#0x00
      0014FC 75 17 04         [24] 1102 	mov	_send_4_PARM_2,#0x04
      0014FF 75 18 00         [24] 1103 	mov	(_send_4_PARM_2 + 1),#0x00
      001502 90 00 05         [24] 1104 	mov	dptr,#0x0005
      001505 12 04 A0         [24] 1105 	lcall	_send_4
                                   1106 ;	.\config_menu.c:198: transmit_string("Successfully updated Subnet Mask");
      001508 90 1C 4A         [24] 1107 	mov	dptr,#___str_9
      00150B 75 F0 80         [24] 1108 	mov	b, #0x80
      00150E 12 08 6D         [24] 1109 	lcall	_transmit_string
                                   1110 ;	.\config_menu.c:199: mode = last_polling_mode;
      001511 85 5E 5C         [24] 1111 	mov	_mode,_last_polling_mode
                                   1112 ;	.\config_menu.c:200: break;
      001514 02 16 09         [24] 1113 	ljmp	00132$
                                   1114 ;	.\config_menu.c:201: case 289:
      001517                       1115 00121$:
                                   1116 ;	.\config_menu.c:202: send_4(0x0001, 0x04, cmd_val[0], cmd_val[1], cmd_val[2], cmd_val[3]);
      001517 85 6A 19         [24] 1117 	mov	_send_4_PARM_3,_process_cmd_cmd_val_10000_42
      00151A 75 1A 00         [24] 1118 	mov	(_send_4_PARM_3 + 1),#0x00
      00151D 85 6B 1B         [24] 1119 	mov	_send_4_PARM_4,(_process_cmd_cmd_val_10000_42 + 0x0001)
      001520 75 1C 00         [24] 1120 	mov	(_send_4_PARM_4 + 1),#0x00
      001523 85 6C 1D         [24] 1121 	mov	_send_4_PARM_5,(_process_cmd_cmd_val_10000_42 + 0x0002)
      001526 75 1E 00         [24] 1122 	mov	(_send_4_PARM_5 + 1),#0x00
      001529 85 6D 1F         [24] 1123 	mov	_send_4_PARM_6,(_process_cmd_cmd_val_10000_42 + 0x0003)
      00152C 75 20 00         [24] 1124 	mov	(_send_4_PARM_6 + 1),#0x00
      00152F 75 17 04         [24] 1125 	mov	_send_4_PARM_2,#0x04
      001532 75 18 00         [24] 1126 	mov	(_send_4_PARM_2 + 1),#0x00
      001535 90 00 01         [24] 1127 	mov	dptr,#0x0001
      001538 12 04 A0         [24] 1128 	lcall	_send_4
                                   1129 ;	.\config_menu.c:203: transmit_string("Successfully updated Gateway");
      00153B 90 1C 6B         [24] 1130 	mov	dptr,#___str_10
      00153E 75 F0 80         [24] 1131 	mov	b, #0x80
      001541 12 08 6D         [24] 1132 	lcall	_transmit_string
                                   1133 ;	.\config_menu.c:204: mode = last_polling_mode;
      001544 85 5E 5C         [24] 1134 	mov	_mode,_last_polling_mode
                                   1135 ;	.\config_menu.c:205: break;
      001547 02 16 09         [24] 1136 	ljmp	00132$
                                   1137 ;	.\config_menu.c:206: case 209:
      00154A                       1138 00122$:
                                   1139 ;	.\config_menu.c:207: set_mac_adr(cmd_val[0], cmd_val[1], cmd_val[2], cmd_val[3], cmd_val[4], cmd_val[5]);
      00154A AE 6A            [24] 1140 	mov	r6,_process_cmd_cmd_val_10000_42
      00154C 7F 00            [12] 1141 	mov	r7,#0x00
      00154E 85 6B 23         [24] 1142 	mov	_set_mac_adr_PARM_2,(_process_cmd_cmd_val_10000_42 + 0x0001)
      001551 8F 24            [24] 1143 	mov	(_set_mac_adr_PARM_2 + 1),r7
      001553 85 6C 25         [24] 1144 	mov	_set_mac_adr_PARM_3,(_process_cmd_cmd_val_10000_42 + 0x0002)
      001556 8F 26            [24] 1145 	mov	(_set_mac_adr_PARM_3 + 1),r7
      001558 85 6D 27         [24] 1146 	mov	_set_mac_adr_PARM_4,(_process_cmd_cmd_val_10000_42 + 0x0003)
      00155B 8F 28            [24] 1147 	mov	(_set_mac_adr_PARM_4 + 1),r7
      00155D 85 6E 29         [24] 1148 	mov	_set_mac_adr_PARM_5,(_process_cmd_cmd_val_10000_42 + 0x0004)
      001560 8F 2A            [24] 1149 	mov	(_set_mac_adr_PARM_5 + 1),r7
      001562 85 6F 2B         [24] 1150 	mov	_set_mac_adr_PARM_6,(_process_cmd_cmd_val_10000_42 + 0x0005)
      001565 8F 2C            [24] 1151 	mov	(_set_mac_adr_PARM_6 + 1),r7
      001567 8E 82            [24] 1152 	mov	dpl, r6
      001569 8F 83            [24] 1153 	mov	dph, r7
      00156B 12 05 35         [24] 1154 	lcall	_set_mac_adr
                                   1155 ;	.\config_menu.c:208: transmit_string("Successfully updated MAC Address");
      00156E 90 1C 88         [24] 1156 	mov	dptr,#___str_11
      001571 75 F0 80         [24] 1157 	mov	b, #0x80
      001574 12 08 6D         [24] 1158 	lcall	_transmit_string
                                   1159 ;	.\config_menu.c:209: mode = last_polling_mode;
      001577 85 5E 5C         [24] 1160 	mov	_mode,_last_polling_mode
                                   1161 ;	.\config_menu.c:210: break;
      00157A 02 16 09         [24] 1162 	ljmp	00132$
                                   1163 ;	.\config_menu.c:211: case 293:
      00157D                       1164 00123$:
                                   1165 ;	.\config_menu.c:213: send_1(0x0001, 0x0C, 0x10);
      00157D 75 0D 0C         [24] 1166 	mov	_send_1_PARM_2,#0x0c
      001580 75 0E 00         [24] 1167 	mov	(_send_1_PARM_2 + 1),#0x00
      001583 75 0F 10         [24] 1168 	mov	_send_1_PARM_3,#0x10
      001586 75 10 00         [24] 1169 	mov	(_send_1_PARM_3 + 1),#0x00
      001589 90 00 01         [24] 1170 	mov	dptr,#0x0001
      00158C 12 04 3A         [24] 1171 	lcall	_send_1
                                   1172 ;	.\config_menu.c:214: switch (cmd_val[0])
      00158F AF 6A            [24] 1173 	mov	r7,_process_cmd_cmd_val_10000_42
      001591 BF E7 02         [24] 1174 	cjne	r7,#0xe7,00294$
      001594 80 2C            [24] 1175 	sjmp	00125$
      001596                       1176 00294$:
      001596 BF E9 64         [24] 1177 	cjne	r7,#0xe9,00126$
                                   1178 ;	.\config_menu.c:218: send_1(0x0000, 0x0C, 0x02);
      001599 75 0D 0C         [24] 1179 	mov	_send_1_PARM_2,#0x0c
      00159C 75 0E 00         [24] 1180 	mov	(_send_1_PARM_2 + 1),#0x00
      00159F 75 0F 02         [24] 1181 	mov	_send_1_PARM_3,#0x02
      0015A2 75 10 00         [24] 1182 	mov	(_send_1_PARM_3 + 1),#0x00
      0015A5 90 00 00         [24] 1183 	mov	dptr,#0x0000
      0015A8 12 04 3A         [24] 1184 	lcall	_send_1
                                   1185 ;	.\config_menu.c:220: send_1(0x0001, 0x0C, 0x01);
      0015AB 75 0D 0C         [24] 1186 	mov	_send_1_PARM_2,#0x0c
      0015AE 75 0E 00         [24] 1187 	mov	(_send_1_PARM_2 + 1),#0x00
      0015B1 75 0F 01         [24] 1188 	mov	_send_1_PARM_3,#0x01
      0015B4 75 10 00         [24] 1189 	mov	(_send_1_PARM_3 + 1),#0x00
      0015B7 90 00 01         [24] 1190 	mov	dptr,#0x0001
      0015BA 12 04 3A         [24] 1191 	lcall	_send_1
                                   1192 ;	.\config_menu.c:221: mode = DUAL_POLLING_MODE;
      0015BD 75 5C 00         [24] 1193 	mov	_mode,#0x00
                                   1194 ;	.\config_menu.c:223: break;
                                   1195 ;	.\config_menu.c:224: case 231:
      0015C0 80 3E            [24] 1196 	sjmp	00127$
      0015C2                       1197 00125$:
                                   1198 ;	.\config_menu.c:226: send_1(0x0000, 0x0C, 0x01);
      0015C2 75 0D 0C         [24] 1199 	mov	_send_1_PARM_2,#0x0c
      0015C5 75 0E 00         [24] 1200 	mov	(_send_1_PARM_2 + 1),#0x00
      0015C8 75 0F 01         [24] 1201 	mov	_send_1_PARM_3,#0x01
      0015CB 75 10 00         [24] 1202 	mov	(_send_1_PARM_3 + 1),#0x00
      0015CE 90 00 00         [24] 1203 	mov	dptr,#0x0000
      0015D1 12 04 3A         [24] 1204 	lcall	_send_1
                                   1205 ;	.\config_menu.c:228: send_1(0x0001, 0x0C, 0x01);
      0015D4 75 0D 0C         [24] 1206 	mov	_send_1_PARM_2,#0x0c
      0015D7 75 0E 00         [24] 1207 	mov	(_send_1_PARM_2 + 1),#0x00
      0015DA 75 0F 01         [24] 1208 	mov	_send_1_PARM_3,#0x01
      0015DD 75 10 00         [24] 1209 	mov	(_send_1_PARM_3 + 1),#0x00
      0015E0 90 00 01         [24] 1210 	mov	dptr,#0x0001
      0015E3 12 04 3A         [24] 1211 	lcall	_send_1
                                   1212 ;	.\config_menu.c:230: send_1(0x0001, 0x0C, 0x02);
      0015E6 75 0D 0C         [24] 1213 	mov	_send_1_PARM_2,#0x0c
      0015E9 75 0E 00         [24] 1214 	mov	(_send_1_PARM_2 + 1),#0x00
      0015EC 75 0F 02         [24] 1215 	mov	_send_1_PARM_3,#0x02
      0015EF 75 10 00         [24] 1216 	mov	(_send_1_PARM_3 + 1),#0x00
      0015F2 90 00 01         [24] 1217 	mov	dptr,#0x0001
      0015F5 12 04 3A         [24] 1218 	lcall	_send_1
                                   1219 ;	.\config_menu.c:231: mode = TCP_POLLING_MODE;
      0015F8 75 5C 01         [24] 1220 	mov	_mode,#0x01
                                   1221 ;	.\config_menu.c:232: break;
                                   1222 ;	.\config_menu.c:233: default:
      0015FB 80 03            [24] 1223 	sjmp	00127$
      0015FD                       1224 00126$:
                                   1225 ;	.\config_menu.c:234: mode = last_polling_mode;
      0015FD 85 5E 5C         [24] 1226 	mov	_mode,_last_polling_mode
                                   1227 ;	.\config_menu.c:236: }
      001600                       1228 00127$:
                                   1229 ;	.\config_menu.c:237: transmit_string("Changed mode");
      001600 90 1C A9         [24] 1230 	mov	dptr,#___str_12
      001603 75 F0 80         [24] 1231 	mov	b, #0x80
      001606 12 08 6D         [24] 1232 	lcall	_transmit_string
                                   1233 ;	.\config_menu.c:241: }
      001609                       1234 00132$:
                                   1235 ;	.\config_menu.c:243: mode = last_polling_mode;
      001609 85 5E 5C         [24] 1236 	mov	_mode,_last_polling_mode
                                   1237 ;	.\config_menu.c:244: for(int i = 0; i < 6; i++){
      00160C 7E 00            [12] 1238 	mov	r6,#0x00
      00160E 7F 00            [12] 1239 	mov	r7,#0x00
      001610                       1240 00135$:
      001610 C3               [12] 1241 	clr	c
      001611 EE               [12] 1242 	mov	a,r6
      001612 94 06            [12] 1243 	subb	a,#0x06
      001614 EF               [12] 1244 	mov	a,r7
      001615 64 80            [12] 1245 	xrl	a,#0x80
      001617 94 80            [12] 1246 	subb	a,#0x80
      001619 50 0D            [24] 1247 	jnc	00133$
                                   1248 ;	.\config_menu.c:245: cmd_val[i] = 0;
      00161B EE               [12] 1249 	mov	a,r6
      00161C 24 6A            [12] 1250 	add	a, #_process_cmd_cmd_val_10000_42
      00161E F8               [12] 1251 	mov	r0,a
      00161F 76 00            [12] 1252 	mov	@r0,#0x00
                                   1253 ;	.\config_menu.c:244: for(int i = 0; i < 6; i++){
      001621 0E               [12] 1254 	inc	r6
      001622 BE 00 EB         [24] 1255 	cjne	r6,#0x00,00135$
      001625 0F               [12] 1256 	inc	r7
      001626 80 E8            [24] 1257 	sjmp	00135$
      001628                       1258 00133$:
                                   1259 ;	.\config_menu.c:247: invalid_cmd_flag = 0;
      001628 75 5D 00         [24] 1260 	mov	_invalid_cmd_flag,#0x00
                                   1261 ;	.\config_menu.c:248: }
      00162B 22               [24] 1262 	ret
                                   1263 ;------------------------------------------------------------
                                   1264 ;Allocation info for local variables in function 'process_byte'
                                   1265 ;------------------------------------------------------------
                                   1266 ;cmd_val                   Allocated with name '_process_byte_cmd_val_10000_53'
                                   1267 ;added                     Allocated with name '_process_byte_added_10000_54'
                                   1268 ;counter                   Allocated to registers r3 
                                   1269 ;value                     Allocated with name '_process_byte_value_10000_54'
                                   1270 ;------------------------------------------------------------
                                   1271 ;	.\config_menu.c:250: void process_byte(unsigned char cmd_val[]){
                                   1272 ;	-----------------------------------------
                                   1273 ;	 function process_byte
                                   1274 ;	-----------------------------------------
      00162C                       1275 _process_byte:
      00162C 85 82 70         [24] 1276 	mov	_process_byte_cmd_val_10000_53,dpl
      00162F 85 83 71         [24] 1277 	mov	(_process_byte_cmd_val_10000_53 + 1),dph
      001632 85 F0 72         [24] 1278 	mov	(_process_byte_cmd_val_10000_53 + 2),b
                                   1279 ;	.\config_menu.c:251: unsigned char added = 0;
                                   1280 ;	.\config_menu.c:252: unsigned char counter = 0;
                                   1281 ;	.\config_menu.c:253: int value = 0;
      001635 E4               [12] 1282 	clr	a
      001636 FC               [12] 1283 	mov	r4,a
      001637 FB               [12] 1284 	mov	r3,a
      001638 F5 74            [12] 1285 	mov	_process_byte_value_10000_54,a
      00163A F5 75            [12] 1286 	mov	(_process_byte_value_10000_54 + 1),a
                                   1287 ;	.\config_menu.c:255: while(buffer_idx < buffer_size && buffer[buffer_idx] != 0){
      00163C F5 73            [12] 1288 	mov	_process_byte_added_10000_54,a
      00163E                       1289 00118$:
      00163E C3               [12] 1290 	clr	c
      00163F E5 5A            [12] 1291 	mov	a,_buffer_idx
      001641 95 5B            [12] 1292 	subb	a,_buffer_size
      001643 40 03            [24] 1293 	jc	00197$
      001645 02 17 40         [24] 1294 	ljmp	00120$
      001648                       1295 00197$:
      001648 E5 5A            [12] 1296 	mov	a,_buffer_idx
      00164A 24 3D            [12] 1297 	add	a, #_buffer
      00164C F9               [12] 1298 	mov	r1,a
      00164D E7               [12] 1299 	mov	a,@r1
      00164E FD               [12] 1300 	mov	r5,a
      00164F 70 03            [24] 1301 	jnz	00198$
      001651 02 17 40         [24] 1302 	ljmp	00120$
      001654                       1303 00198$:
                                   1304 ;	.\config_menu.c:256: if((buffer[buffer_idx] >= '0' && buffer[buffer_idx] <= '9') && counter <= 2){
      001654 BD 30 00         [24] 1305 	cjne	r5,#0x30,00199$
      001657                       1306 00199$:
      001657 40 3F            [24] 1307 	jc	00113$
      001659 ED               [12] 1308 	mov	a,r5
      00165A 24 C6            [12] 1309 	add	a,#0xff - 0x39
      00165C 40 3A            [24] 1310 	jc	00113$
      00165E EB               [12] 1311 	mov	a,r3
      00165F 24 FD            [12] 1312 	add	a,#0xff - 0x02
      001661 40 35            [24] 1313 	jc	00113$
                                   1314 ;	.\config_menu.c:257: value += ((buffer[buffer_idx] - '0') * factor[counter]);
      001663 7E 00            [12] 1315 	mov	r6,#0x00
      001665 ED               [12] 1316 	mov	a,r5
      001666 24 D0            [12] 1317 	add	a,#0xd0
      001668 F5 82            [12] 1318 	mov	dpl,a
      00166A EE               [12] 1319 	mov	a,r6
      00166B 34 FF            [12] 1320 	addc	a,#0xff
      00166D F5 83            [12] 1321 	mov	dph,a
      00166F EB               [12] 1322 	mov	a,r3
      001670 24 66            [12] 1323 	add	a, #_factor
      001672 F9               [12] 1324 	mov	r1,a
      001673 87 06            [24] 1325 	mov	ar6,@r1
      001675 8E 7E            [24] 1326 	mov	__mulint_PARM_2,r6
      001677 75 7F 00         [24] 1327 	mov	(__mulint_PARM_2 + 1),#0x00
      00167A C0 04            [24] 1328 	push	ar4
      00167C C0 03            [24] 1329 	push	ar3
      00167E 12 18 AA         [24] 1330 	lcall	__mulint
      001681 AD 82            [24] 1331 	mov	r5, dpl
      001683 AE 83            [24] 1332 	mov	r6, dph
      001685 D0 03            [24] 1333 	pop	ar3
      001687 D0 04            [24] 1334 	pop	ar4
      001689 ED               [12] 1335 	mov	a,r5
      00168A 25 74            [12] 1336 	add	a, _process_byte_value_10000_54
      00168C F5 74            [12] 1337 	mov	_process_byte_value_10000_54,a
      00168E EE               [12] 1338 	mov	a,r6
      00168F 35 75            [12] 1339 	addc	a, (_process_byte_value_10000_54 + 1)
      001691 F5 75            [12] 1340 	mov	(_process_byte_value_10000_54 + 1),a
                                   1341 ;	.\config_menu.c:258: counter++;
      001693 0B               [12] 1342 	inc	r3
                                   1343 ;	.\config_menu.c:259: buffer_idx++;
      001694 05 5A            [12] 1344 	inc	_buffer_idx
      001696 80 A6            [24] 1345 	sjmp	00118$
      001698                       1346 00113$:
                                   1347 ;	.\config_menu.c:260: } else if (buffer[buffer_idx] == '.' && counter > 0){
      001698 E5 5A            [12] 1348 	mov	a,_buffer_idx
      00169A 24 3D            [12] 1349 	add	a, #_buffer
      00169C F9               [12] 1350 	mov	r1,a
      00169D 87 06            [24] 1351 	mov	ar6,@r1
      00169F BE 2E 02         [24] 1352 	cjne	r6,#0x2e,00203$
      0016A2 80 03            [24] 1353 	sjmp	00204$
      0016A4                       1354 00203$:
      0016A4 02 17 30         [24] 1355 	ljmp	00109$
      0016A7                       1356 00204$:
      0016A7 EB               [12] 1357 	mov	a,r3
      0016A8 70 03            [24] 1358 	jnz	00205$
      0016AA 02 17 30         [24] 1359 	ljmp	00109$
      0016AD                       1360 00205$:
                                   1361 ;	.\config_menu.c:261: if(counter == 2){
      0016AD BB 02 1B         [24] 1362 	cjne	r3,#0x02,00104$
                                   1363 ;	.\config_menu.c:262: value = value/10;
      0016B0 75 7E 0A         [24] 1364 	mov	__divsint_PARM_2,#0x0a
      0016B3 75 7F 00         [24] 1365 	mov	(__divsint_PARM_2 + 1),#0x00
      0016B6 85 74 82         [24] 1366 	mov	dpl, _process_byte_value_10000_54
      0016B9 85 75 83         [24] 1367 	mov	dph, (_process_byte_value_10000_54 + 1)
      0016BC C0 04            [24] 1368 	push	ar4
      0016BE 12 19 8F         [24] 1369 	lcall	__divsint
      0016C1 85 82 74         [24] 1370 	mov	_process_byte_value_10000_54,dpl
      0016C4 85 83 75         [24] 1371 	mov	(_process_byte_value_10000_54 + 1),dph
      0016C7 D0 04            [24] 1372 	pop	ar4
      0016C9 80 1C            [24] 1373 	sjmp	00105$
      0016CB                       1374 00104$:
                                   1375 ;	.\config_menu.c:263: } else if (counter == 1){
      0016CB BB 01 19         [24] 1376 	cjne	r3,#0x01,00105$
                                   1377 ;	.\config_menu.c:264: value = value/100;
      0016CE 75 7E 64         [24] 1378 	mov	__divsint_PARM_2,#0x64
      0016D1 75 7F 00         [24] 1379 	mov	(__divsint_PARM_2 + 1),#0x00
      0016D4 85 74 82         [24] 1380 	mov	dpl, _process_byte_value_10000_54
      0016D7 85 75 83         [24] 1381 	mov	dph, (_process_byte_value_10000_54 + 1)
      0016DA C0 04            [24] 1382 	push	ar4
      0016DC 12 19 8F         [24] 1383 	lcall	__divsint
      0016DF 85 82 74         [24] 1384 	mov	_process_byte_value_10000_54,dpl
      0016E2 85 83 75         [24] 1385 	mov	(_process_byte_value_10000_54 + 1),dph
      0016E5 D0 04            [24] 1386 	pop	ar4
      0016E7                       1387 00105$:
                                   1388 ;	.\config_menu.c:266: if(value > 255){
      0016E7 C3               [12] 1389 	clr	c
      0016E8 74 FF            [12] 1390 	mov	a,#0xff
      0016EA 95 74            [12] 1391 	subb	a,_process_byte_value_10000_54
      0016EC 74 80            [12] 1392 	mov	a,#(0x00 ^ 0x80)
      0016EE 85 75 F0         [24] 1393 	mov	b,(_process_byte_value_10000_54 + 1)
      0016F1 63 F0 80         [24] 1394 	xrl	b,#0x80
      0016F4 95 F0            [12] 1395 	subb	a,b
      0016F6 50 12            [24] 1396 	jnc	00107$
                                   1397 ;	.\config_menu.c:267: invalid_cmd_flag = 1; 
      0016F8 75 5D 01         [24] 1398 	mov	_invalid_cmd_flag,#0x01
                                   1399 ;	.\config_menu.c:268: transmit_string("1");
      0016FB 90 1C B6         [24] 1400 	mov	dptr,#___str_13
      0016FE 75 F0 80         [24] 1401 	mov	b, #0x80
      001701 C0 04            [24] 1402 	push	ar4
      001703 12 08 6D         [24] 1403 	lcall	_transmit_string
      001706 D0 04            [24] 1404 	pop	ar4
                                   1405 ;	.\config_menu.c:269: break;
      001708 80 36            [24] 1406 	sjmp	00120$
      00170A                       1407 00107$:
                                   1408 ;	.\config_menu.c:271: cmd_val[added] = value;
      00170A E5 73            [12] 1409 	mov	a,_process_byte_added_10000_54
      00170C 25 70            [12] 1410 	add	a, _process_byte_cmd_val_10000_53
      00170E FD               [12] 1411 	mov	r5,a
      00170F E4               [12] 1412 	clr	a
      001710 35 71            [12] 1413 	addc	a, (_process_byte_cmd_val_10000_53 + 1)
      001712 FE               [12] 1414 	mov	r6,a
      001713 AF 72            [24] 1415 	mov	r7,(_process_byte_cmd_val_10000_53 + 2)
      001715 AA 74            [24] 1416 	mov	r2,_process_byte_value_10000_54
      001717 8D 82            [24] 1417 	mov	dpl,r5
      001719 8E 83            [24] 1418 	mov	dph,r6
      00171B 8F F0            [24] 1419 	mov	b,r7
      00171D EA               [12] 1420 	mov	a,r2
      00171E 12 18 8F         [24] 1421 	lcall	__gptrput
                                   1422 ;	.\config_menu.c:272: value = 0;
      001721 E4               [12] 1423 	clr	a
      001722 F5 74            [12] 1424 	mov	_process_byte_value_10000_54,a
      001724 F5 75            [12] 1425 	mov	(_process_byte_value_10000_54 + 1),a
                                   1426 ;	.\config_menu.c:273: added++;
      001726 05 73            [12] 1427 	inc	_process_byte_added_10000_54
      001728 AC 73            [24] 1428 	mov	r4,_process_byte_added_10000_54
                                   1429 ;	.\config_menu.c:274: counter = 0;
      00172A FB               [12] 1430 	mov	r3,a
                                   1431 ;	.\config_menu.c:275: buffer_idx++;
      00172B 05 5A            [12] 1432 	inc	_buffer_idx
      00172D 02 16 3E         [24] 1433 	ljmp	00118$
      001730                       1434 00109$:
                                   1435 ;	.\config_menu.c:277: transmit_string("2");
      001730 90 1C B8         [24] 1436 	mov	dptr,#___str_14
      001733 75 F0 80         [24] 1437 	mov	b, #0x80
      001736 C0 04            [24] 1438 	push	ar4
      001738 12 08 6D         [24] 1439 	lcall	_transmit_string
      00173B D0 04            [24] 1440 	pop	ar4
                                   1441 ;	.\config_menu.c:278: invalid_cmd_flag = 1;
      00173D 75 5D 01         [24] 1442 	mov	_invalid_cmd_flag,#0x01
                                   1443 ;	.\config_menu.c:279: break;
      001740                       1444 00120$:
                                   1445 ;	.\config_menu.c:283: if(added != 4){
      001740 BC 04 01         [24] 1446 	cjne	r4,#0x04,00211$
      001743 22               [24] 1447 	ret
      001744                       1448 00211$:
                                   1449 ;	.\config_menu.c:284: transmit_string("3");
      001744 90 1C BA         [24] 1450 	mov	dptr,#___str_15
      001747 75 F0 80         [24] 1451 	mov	b, #0x80
      00174A 12 08 6D         [24] 1452 	lcall	_transmit_string
                                   1453 ;	.\config_menu.c:285: invalid_cmd_flag = 1;
      00174D 75 5D 01         [24] 1454 	mov	_invalid_cmd_flag,#0x01
                                   1455 ;	.\config_menu.c:286: return;
                                   1456 ;	.\config_menu.c:288: }
      001750 22               [24] 1457 	ret
                                   1458 ;------------------------------------------------------------
                                   1459 ;Allocation info for local variables in function 'process_mac'
                                   1460 ;------------------------------------------------------------
                                   1461 ;cmd_val                   Allocated with name '_process_mac_cmd_val_10000_63'
                                   1462 ;added                     Allocated to registers r4 
                                   1463 ;value                     Allocated with name '_process_mac_value_10000_64'
                                   1464 ;temp                      Allocated with name '_process_mac_temp_10000_64'
                                   1465 ;------------------------------------------------------------
                                   1466 ;	.\config_menu.c:290: void process_mac(unsigned char cmd_val[]){
                                   1467 ;	-----------------------------------------
                                   1468 ;	 function process_mac
                                   1469 ;	-----------------------------------------
      001751                       1470 _process_mac:
      001751 85 82 76         [24] 1471 	mov	_process_mac_cmd_val_10000_63,dpl
      001754 85 83 77         [24] 1472 	mov	(_process_mac_cmd_val_10000_63 + 1),dph
      001757 85 F0 78         [24] 1473 	mov	(_process_mac_cmd_val_10000_63 + 2),b
                                   1474 ;	.\config_menu.c:294: while(buffer[buffer_idx] != 0 && buffer[buffer_idx] != '.'){
      00175A 7C 00            [12] 1475 	mov	r4,#0x00
      00175C                       1476 00102$:
      00175C E5 5A            [12] 1477 	mov	a,_buffer_idx
      00175E 24 3D            [12] 1478 	add	a, #_buffer
      001760 F9               [12] 1479 	mov	r1,a
      001761 E7               [12] 1480 	mov	a,@r1
      001762 FB               [12] 1481 	mov	r3,a
      001763 60 4F            [24] 1482 	jz	00104$
      001765 BB 2E 02         [24] 1483 	cjne	r3,#0x2e,00139$
      001768 80 4A            [24] 1484 	sjmp	00104$
      00176A                       1485 00139$:
                                   1486 ;	.\config_menu.c:295: temp = buffer[buffer_idx];
      00176A 8B 7A            [24] 1487 	mov	_process_mac_temp_10000_64,r3
                                   1488 ;	.\config_menu.c:296: process_temp(&temp);
      00176C 90 00 7A         [24] 1489 	mov	dptr,#_process_mac_temp_10000_64
      00176F 75 F0 40         [24] 1490 	mov	b, #0x40
      001772 C0 04            [24] 1491 	push	ar4
      001774 12 17 C5         [24] 1492 	lcall	_process_temp
                                   1493 ;	.\config_menu.c:297: value = temp << 4;
      001777 E5 7A            [12] 1494 	mov	a,_process_mac_temp_10000_64
      001779 C4               [12] 1495 	swap	a
      00177A 54 F0            [12] 1496 	anl	a,#0xf0
      00177C FB               [12] 1497 	mov	r3,a
                                   1498 ;	.\config_menu.c:298: buffer_idx++;
      00177D 05 5A            [12] 1499 	inc	_buffer_idx
                                   1500 ;	.\config_menu.c:300: temp = buffer[buffer_idx];
      00177F E5 5A            [12] 1501 	mov	a,_buffer_idx
      001781 24 3D            [12] 1502 	add	a, #_buffer
      001783 F9               [12] 1503 	mov	r1,a
      001784 87 7A            [24] 1504 	mov	_process_mac_temp_10000_64,@r1
                                   1505 ;	.\config_menu.c:301: process_temp(&temp);
      001786 90 00 7A         [24] 1506 	mov	dptr,#_process_mac_temp_10000_64
      001789 75 F0 40         [24] 1507 	mov	b, #0x40
      00178C C0 03            [24] 1508 	push	ar3
      00178E 12 17 C5         [24] 1509 	lcall	_process_temp
      001791 D0 03            [24] 1510 	pop	ar3
      001793 D0 04            [24] 1511 	pop	ar4
                                   1512 ;	.\config_menu.c:302: value |= temp;
      001795 E5 7A            [12] 1513 	mov	a,_process_mac_temp_10000_64
      001797 4B               [12] 1514 	orl	a,r3
      001798 F5 79            [12] 1515 	mov	_process_mac_value_10000_64,a
                                   1516 ;	.\config_menu.c:303: buffer_idx++;
      00179A 05 5A            [12] 1517 	inc	_buffer_idx
                                   1518 ;	.\config_menu.c:305: cmd_val[added] = value;
      00179C EC               [12] 1519 	mov	a,r4
      00179D 25 76            [12] 1520 	add	a, _process_mac_cmd_val_10000_63
      00179F FA               [12] 1521 	mov	r2,a
      0017A0 E4               [12] 1522 	clr	a
      0017A1 35 77            [12] 1523 	addc	a, (_process_mac_cmd_val_10000_63 + 1)
      0017A3 FB               [12] 1524 	mov	r3,a
      0017A4 AF 78            [24] 1525 	mov	r7,(_process_mac_cmd_val_10000_63 + 2)
      0017A6 8A 82            [24] 1526 	mov	dpl,r2
      0017A8 8B 83            [24] 1527 	mov	dph,r3
      0017AA 8F F0            [24] 1528 	mov	b,r7
      0017AC E5 79            [12] 1529 	mov	a,_process_mac_value_10000_64
      0017AE 12 18 8F         [24] 1530 	lcall	__gptrput
                                   1531 ;	.\config_menu.c:306: added++;
      0017B1 0C               [12] 1532 	inc	r4
      0017B2 80 A8            [24] 1533 	sjmp	00102$
      0017B4                       1534 00104$:
                                   1535 ;	.\config_menu.c:308: if(added != 6){
      0017B4 BC 06 01         [24] 1536 	cjne	r4,#0x06,00140$
      0017B7 22               [24] 1537 	ret
      0017B8                       1538 00140$:
                                   1539 ;	.\config_menu.c:309: transmit_string("Not enough values");
      0017B8 90 1C BC         [24] 1540 	mov	dptr,#___str_16
      0017BB 75 F0 80         [24] 1541 	mov	b, #0x80
      0017BE 12 08 6D         [24] 1542 	lcall	_transmit_string
                                   1543 ;	.\config_menu.c:310: invalid_cmd_flag = 1;
      0017C1 75 5D 01         [24] 1544 	mov	_invalid_cmd_flag,#0x01
                                   1545 ;	.\config_menu.c:312: }
      0017C4 22               [24] 1546 	ret
                                   1547 ;------------------------------------------------------------
                                   1548 ;Allocation info for local variables in function 'process_temp'
                                   1549 ;------------------------------------------------------------
                                   1550 ;temp                      Allocated to registers r5 r6 r7 
                                   1551 ;------------------------------------------------------------
                                   1552 ;	.\config_menu.c:314: void process_temp(unsigned char *temp){
                                   1553 ;	-----------------------------------------
                                   1554 ;	 function process_temp
                                   1555 ;	-----------------------------------------
      0017C5                       1556 _process_temp:
                                   1557 ;	.\config_menu.c:317: if(*temp >= '0' && *temp <= '9'){
      0017C5 AD 82            [24] 1558 	mov	r5,dpl
      0017C7 AE 83            [24] 1559 	mov	r6,dph
      0017C9 AF F0            [24] 1560 	mov	r7,b
      0017CB 12 19 3D         [24] 1561 	lcall	__gptrget
      0017CE FC               [12] 1562 	mov	r4,a
      0017CF BC 30 00         [24] 1563 	cjne	r4,#0x30,00151$
      0017D2                       1564 00151$:
      0017D2 40 13            [24] 1565 	jc	00110$
      0017D4 EC               [12] 1566 	mov	a,r4
      0017D5 24 C6            [12] 1567 	add	a,#0xff - 0x39
      0017D7 40 0E            [24] 1568 	jc	00110$
                                   1569 ;	.\config_menu.c:318: *temp -= 48;
      0017D9 8C 03            [24] 1570 	mov	ar3,r4
      0017DB EB               [12] 1571 	mov	a,r3
      0017DC 24 D0            [12] 1572 	add	a,#0xd0
      0017DE 8D 82            [24] 1573 	mov	dpl,r5
      0017E0 8E 83            [24] 1574 	mov	dph,r6
      0017E2 8F F0            [24] 1575 	mov	b,r7
      0017E4 02 18 8F         [24] 1576 	ljmp	__gptrput
      0017E7                       1577 00110$:
                                   1578 ;	.\config_menu.c:320: } else if (*temp >= 'a' && *temp <= 'f'){
      0017E7 BC 61 00         [24] 1579 	cjne	r4,#0x61,00154$
      0017EA                       1580 00154$:
      0017EA 40 13            [24] 1581 	jc	00106$
      0017EC EC               [12] 1582 	mov	a,r4
      0017ED 24 99            [12] 1583 	add	a,#0xff - 0x66
      0017EF 40 0E            [24] 1584 	jc	00106$
                                   1585 ;	.\config_menu.c:321: *temp -= 87;
      0017F1 8C 03            [24] 1586 	mov	ar3,r4
      0017F3 EB               [12] 1587 	mov	a,r3
      0017F4 24 A9            [12] 1588 	add	a,#0xa9
      0017F6 8D 82            [24] 1589 	mov	dpl,r5
      0017F8 8E 83            [24] 1590 	mov	dph,r6
      0017FA 8F F0            [24] 1591 	mov	b,r7
      0017FC 02 18 8F         [24] 1592 	ljmp	__gptrput
      0017FF                       1593 00106$:
                                   1594 ;	.\config_menu.c:323: } else if (*temp >= 'A' && *temp <= 'F'){
      0017FF BC 41 00         [24] 1595 	cjne	r4,#0x41,00157$
      001802                       1596 00157$:
      001802 40 11            [24] 1597 	jc	00102$
      001804 EC               [12] 1598 	mov	a,r4
      001805 24 B9            [12] 1599 	add	a,#0xff - 0x46
      001807 40 0C            [24] 1600 	jc	00102$
                                   1601 ;	.\config_menu.c:324: *temp -= 55;
      001809 EC               [12] 1602 	mov	a,r4
      00180A 24 C9            [12] 1603 	add	a,#0xc9
      00180C 8D 82            [24] 1604 	mov	dpl,r5
      00180E 8E 83            [24] 1605 	mov	dph,r6
      001810 8F F0            [24] 1606 	mov	b,r7
      001812 02 18 8F         [24] 1607 	ljmp	__gptrput
      001815                       1608 00102$:
                                   1609 ;	.\config_menu.c:326: transmit_string("Temp is: ");
      001815 90 1C CE         [24] 1610 	mov	dptr,#___str_17
      001818 75 F0 80         [24] 1611 	mov	b, #0x80
      00181B C0 07            [24] 1612 	push	ar7
      00181D C0 06            [24] 1613 	push	ar6
      00181F C0 05            [24] 1614 	push	ar5
      001821 12 08 6D         [24] 1615 	lcall	_transmit_string
      001824 D0 05            [24] 1616 	pop	ar5
      001826 D0 06            [24] 1617 	pop	ar6
      001828 D0 07            [24] 1618 	pop	ar7
                                   1619 ;	.\config_menu.c:327: transmit_data(temp);
      00182A 8D 82            [24] 1620 	mov	dpl, r5
      00182C 8E 83            [24] 1621 	mov	dph, r6
      00182E 8F F0            [24] 1622 	mov	b, r7
      001830 12 08 38         [24] 1623 	lcall	_transmit_data
                                   1624 ;	.\config_menu.c:328: transmit_string("\r\n");
      001833 90 1B FB         [24] 1625 	mov	dptr,#___str_5
      001836 75 F0 80         [24] 1626 	mov	b, #0x80
      001839 12 08 6D         [24] 1627 	lcall	_transmit_string
                                   1628 ;	.\config_menu.c:329: invalid_cmd_flag = 1;
      00183C 75 5D 01         [24] 1629 	mov	_invalid_cmd_flag,#0x01
                                   1630 ;	.\config_menu.c:331: }
      00183F 22               [24] 1631 	ret
                                   1632 ;------------------------------------------------------------
                                   1633 ;Allocation info for local variables in function 'process_mode'
                                   1634 ;------------------------------------------------------------
                                   1635 ;cmd_val                   Allocated with name '_process_mode_cmd_val_10000_73'
                                   1636 ;mode_sum                  Allocated to registers r3 r4 
                                   1637 ;i                         Allocated to registers r2 
                                   1638 ;------------------------------------------------------------
                                   1639 ;	.\config_menu.c:333: void process_mode(unsigned char cmd_val[]){
                                   1640 ;	-----------------------------------------
                                   1641 ;	 function process_mode
                                   1642 ;	-----------------------------------------
      001840                       1643 _process_mode:
      001840 85 82 7B         [24] 1644 	mov	_process_mode_cmd_val_10000_73,dpl
      001843 85 83 7C         [24] 1645 	mov	(_process_mode_cmd_val_10000_73 + 1),dph
      001846 85 F0 7D         [24] 1646 	mov	(_process_mode_cmd_val_10000_73 + 2),b
                                   1647 ;	.\config_menu.c:334: int mode_sum = 0;
      001849 7B 00            [12] 1648 	mov	r3,#0x00
      00184B 7C 00            [12] 1649 	mov	r4,#0x00
                                   1650 ;	.\config_menu.c:335: for(int i = 0; i < 3; i++){
      00184D 7A 00            [12] 1651 	mov	r2,#0x00
      00184F                       1652 00107$:
      00184F BA 03 00         [24] 1653 	cjne	r2,#0x03,00130$
      001852                       1654 00130$:
      001852 50 14            [24] 1655 	jnc	00101$
                                   1656 ;	.\config_menu.c:336: mode_sum += buffer[buffer_idx];
      001854 E5 5A            [12] 1657 	mov	a,_buffer_idx
      001856 24 3D            [12] 1658 	add	a, #_buffer
      001858 F9               [12] 1659 	mov	r1,a
      001859 87 07            [24] 1660 	mov	ar7,@r1
      00185B 7E 00            [12] 1661 	mov	r6,#0x00
      00185D EF               [12] 1662 	mov	a,r7
      00185E 2B               [12] 1663 	add	a, r3
      00185F FB               [12] 1664 	mov	r3,a
      001860 EE               [12] 1665 	mov	a,r6
      001861 3C               [12] 1666 	addc	a, r4
      001862 FC               [12] 1667 	mov	r4,a
                                   1668 ;	.\config_menu.c:337: buffer_idx++;
      001863 05 5A            [12] 1669 	inc	_buffer_idx
                                   1670 ;	.\config_menu.c:335: for(int i = 0; i < 3; i++){
      001865 0A               [12] 1671 	inc	r2
      001866 80 E7            [24] 1672 	sjmp	00107$
      001868                       1673 00101$:
                                   1674 ;	.\config_menu.c:339: if(mode_sum == 233 || mode_sum == 231){
      001868 BB E9 05         [24] 1675 	cjne	r3,#0xe9,00132$
      00186B BC 00 02         [24] 1676 	cjne	r4,#0x00,00132$
      00186E 80 06            [24] 1677 	sjmp	00102$
      001870                       1678 00132$:
      001870 BB E7 10         [24] 1679 	cjne	r3,#0xe7,00103$
      001873 BC 00 0D         [24] 1680 	cjne	r4,#0x00,00103$
      001876                       1681 00102$:
                                   1682 ;	.\config_menu.c:340: cmd_val[0] = mode_sum;
      001876 85 7B 82         [24] 1683 	mov	dpl,_process_mode_cmd_val_10000_73
      001879 85 7C 83         [24] 1684 	mov	dph,(_process_mode_cmd_val_10000_73 + 1)
      00187C 85 7D F0         [24] 1685 	mov	b,(_process_mode_cmd_val_10000_73 + 2)
      00187F EB               [12] 1686 	mov	a,r3
      001880 02 18 8F         [24] 1687 	ljmp	__gptrput
      001883                       1688 00103$:
                                   1689 ;	.\config_menu.c:342: invalid_cmd_flag = 1;
      001883 75 5D 01         [24] 1690 	mov	_invalid_cmd_flag,#0x01
                                   1691 ;	.\config_menu.c:343: transmit_string("Invalid mode format\r\n");
      001886 90 1C D8         [24] 1692 	mov	dptr,#___str_18
      001889 75 F0 80         [24] 1693 	mov	b, #0x80
                                   1694 ;	.\config_menu.c:345: }
      00188C 02 08 6D         [24] 1695 	ljmp	_transmit_string
                                   1696 	.area CSEG    (CODE)
                                   1697 	.area CONST   (CODE)
                                   1698 	.area CONST   (CODE)
      001BA8                       1699 ___str_0:
      001BA8 0D                    1700 	.db 0x0d
      001BA9 0A                    1701 	.db 0x0a
      001BAA 43 75 72 72 65 6E 74  1702 	.ascii "Current Config"
             20 43 6F 6E 66 69 67
      001BB8 0D                    1703 	.db 0x0d
      001BB9 0A                    1704 	.db 0x0a
      001BBA 52 54 55 3A 20        1705 	.ascii "RTU: "
      001BBF 00                    1706 	.db 0x00
                                   1707 	.area CSEG    (CODE)
                                   1708 	.area CONST   (CODE)
      001BC0                       1709 ___str_1:
      001BC0 0D                    1710 	.db 0x0d
      001BC1 0A                    1711 	.db 0x0a
      001BC2 49 50 20 41 64 64 72  1712 	.ascii "IP Address: "
             65 73 73 3A 20
      001BCE 00                    1713 	.db 0x00
                                   1714 	.area CSEG    (CODE)
                                   1715 	.area CONST   (CODE)
      001BCF                       1716 ___str_2:
      001BCF 0D                    1717 	.db 0x0d
      001BD0 0A                    1718 	.db 0x0a
      001BD1 53 75 62 6E 65 74 20  1719 	.ascii "Subnet Mask: "
             4D 61 73 6B 3A 20
      001BDE 00                    1720 	.db 0x00
                                   1721 	.area CSEG    (CODE)
                                   1722 	.area CONST   (CODE)
      001BDF                       1723 ___str_3:
      001BDF 0D                    1724 	.db 0x0d
      001BE0 0A                    1725 	.db 0x0a
      001BE1 47 61 74 65 77 61 79  1726 	.ascii "Gateway: "
             3A 20
      001BEA 00                    1727 	.db 0x00
                                   1728 	.area CSEG    (CODE)
                                   1729 	.area CONST   (CODE)
      001BEB                       1730 ___str_4:
      001BEB 0D                    1731 	.db 0x0d
      001BEC 0A                    1732 	.db 0x0a
      001BED 4D 41 43 20 41 64 64  1733 	.ascii "MAC Address: "
             72 65 73 73 3A 20
      001BFA 00                    1734 	.db 0x00
                                   1735 	.area CSEG    (CODE)
                                   1736 	.area CONST   (CODE)
      001BFB                       1737 ___str_5:
      001BFB 0D                    1738 	.db 0x0d
      001BFC 0A                    1739 	.db 0x0a
      001BFD 00                    1740 	.db 0x00
                                   1741 	.area CSEG    (CODE)
                                   1742 	.area CONST   (CODE)
      001BFE                       1743 ___str_6:
      001BFE 49 6E 76 61 6C 69 64  1744 	.ascii "Invalid Command Format"
             20 43 6F 6D 6D 61 6E
             64 20 46 6F 72 6D 61
             74
      001C14 0D                    1745 	.db 0x0d
      001C15 0A                    1746 	.db 0x0a
      001C16 00                    1747 	.db 0x00
                                   1748 	.area CSEG    (CODE)
                                   1749 	.area CONST   (CODE)
      001C17                       1750 ___str_7:
      001C17 53 75 63 63 65 73 73  1751 	.ascii "Successfully updated RTU"
             66 75 6C 6C 79 20 75
             70 64 61 74 65 64 20
             52 54 55
      001C2F 0D                    1752 	.db 0x0d
      001C30 0A                    1753 	.db 0x0a
      001C31 00                    1754 	.db 0x00
                                   1755 	.area CSEG    (CODE)
                                   1756 	.area CONST   (CODE)
      001C32                       1757 ___str_8:
      001C32 53 75 63 63 65 73 73  1758 	.ascii "Successfully updated IP"
             66 75 6C 6C 79 20 75
             70 64 61 74 65 64 20
             49 50
      001C49 00                    1759 	.db 0x00
                                   1760 	.area CSEG    (CODE)
                                   1761 	.area CONST   (CODE)
      001C4A                       1762 ___str_9:
      001C4A 53 75 63 63 65 73 73  1763 	.ascii "Successfully updated Subnet Mask"
             66 75 6C 6C 79 20 75
             70 64 61 74 65 64 20
             53 75 62 6E 65 74 20
             4D 61 73 6B
      001C6A 00                    1764 	.db 0x00
                                   1765 	.area CSEG    (CODE)
                                   1766 	.area CONST   (CODE)
      001C6B                       1767 ___str_10:
      001C6B 53 75 63 63 65 73 73  1768 	.ascii "Successfully updated Gateway"
             66 75 6C 6C 79 20 75
             70 64 61 74 65 64 20
             47 61 74 65 77 61 79
      001C87 00                    1769 	.db 0x00
                                   1770 	.area CSEG    (CODE)
                                   1771 	.area CONST   (CODE)
      001C88                       1772 ___str_11:
      001C88 53 75 63 63 65 73 73  1773 	.ascii "Successfully updated MAC Address"
             66 75 6C 6C 79 20 75
             70 64 61 74 65 64 20
             4D 41 43 20 41 64 64
             72 65 73 73
      001CA8 00                    1774 	.db 0x00
                                   1775 	.area CSEG    (CODE)
                                   1776 	.area CONST   (CODE)
      001CA9                       1777 ___str_12:
      001CA9 43 68 61 6E 67 65 64  1778 	.ascii "Changed mode"
             20 6D 6F 64 65
      001CB5 00                    1779 	.db 0x00
                                   1780 	.area CSEG    (CODE)
                                   1781 	.area CONST   (CODE)
      001CB6                       1782 ___str_13:
      001CB6 31                    1783 	.ascii "1"
      001CB7 00                    1784 	.db 0x00
                                   1785 	.area CSEG    (CODE)
                                   1786 	.area CONST   (CODE)
      001CB8                       1787 ___str_14:
      001CB8 32                    1788 	.ascii "2"
      001CB9 00                    1789 	.db 0x00
                                   1790 	.area CSEG    (CODE)
                                   1791 	.area CONST   (CODE)
      001CBA                       1792 ___str_15:
      001CBA 33                    1793 	.ascii "3"
      001CBB 00                    1794 	.db 0x00
                                   1795 	.area CSEG    (CODE)
                                   1796 	.area CONST   (CODE)
      001CBC                       1797 ___str_16:
      001CBC 4E 6F 74 20 65 6E 6F  1798 	.ascii "Not enough values"
             75 67 68 20 76 61 6C
             75 65 73
      001CCD 00                    1799 	.db 0x00
                                   1800 	.area CSEG    (CODE)
                                   1801 	.area CONST   (CODE)
      001CCE                       1802 ___str_17:
      001CCE 54 65 6D 70 20 69 73  1803 	.ascii "Temp is: "
             3A 20
      001CD7 00                    1804 	.db 0x00
                                   1805 	.area CSEG    (CODE)
                                   1806 	.area CONST   (CODE)
      001CD8                       1807 ___str_18:
      001CD8 49 6E 76 61 6C 69 64  1808 	.ascii "Invalid mode format"
             20 6D 6F 64 65 20 66
             6F 72 6D 61 74
      001CEB 0D                    1809 	.db 0x0d
      001CEC 0A                    1810 	.db 0x0a
      001CED 00                    1811 	.db 0x00
                                   1812 	.area CSEG    (CODE)
                                   1813 	.area XINIT   (CODE)
                                   1814 	.area CABS    (ABS,CODE)
