;--------------------------------------------------------
; File Created by SDCC : free open source ISO C Compiler 
; Version 4.4.0 #14620 (MINGW32)
;--------------------------------------------------------
	.module config_menu
	.optsdcc -mmcs51 --model-small
	
;--------------------------------------------------------
; Public variables in this module
;--------------------------------------------------------
	.globl _set_mac_adr
	.globl _send_4
	.globl _send_1
	.globl _end
	.globl _begin
	.globl _asm_shift_in_2
	.globl _asm_shift_out_2
	.globl _transmit_string
	.globl _transmit_int
	.globl _transmit_data
	.globl _CY
	.globl _AC
	.globl _F0
	.globl _RS1
	.globl _RS0
	.globl _OV
	.globl _F1
	.globl _P
	.globl _PS
	.globl _PT1
	.globl _PX1
	.globl _PT0
	.globl _PX0
	.globl _RD
	.globl _WR
	.globl _T1
	.globl _T0
	.globl _INT1
	.globl _INT0
	.globl _TXD
	.globl _RXD
	.globl _P3_7
	.globl _P3_6
	.globl _P3_5
	.globl _P3_4
	.globl _P3_3
	.globl _P3_2
	.globl _P3_1
	.globl _P3_0
	.globl _EA
	.globl _ES
	.globl _ET1
	.globl _EX1
	.globl _ET0
	.globl _EX0
	.globl _P2_7
	.globl _P2_6
	.globl _P2_5
	.globl _P2_4
	.globl _P2_3
	.globl _P2_2
	.globl _P2_1
	.globl _P2_0
	.globl _SM0
	.globl _SM1
	.globl _SM2
	.globl _REN
	.globl _TB8
	.globl _RB8
	.globl _TI
	.globl _RI
	.globl _P1_7
	.globl _P1_6
	.globl _P1_5
	.globl _P1_4
	.globl _P1_3
	.globl _P1_2
	.globl _P1_1
	.globl _P1_0
	.globl _TF1
	.globl _TR1
	.globl _TF0
	.globl _TR0
	.globl _IE1
	.globl _IT1
	.globl _IE0
	.globl _IT0
	.globl _P0_7
	.globl _P0_6
	.globl _P0_5
	.globl _P0_4
	.globl _P0_3
	.globl _P0_2
	.globl _P0_1
	.globl _P0_0
	.globl _B
	.globl _ACC
	.globl _PSW
	.globl _IP
	.globl _P3
	.globl _IE
	.globl _P2
	.globl _SBUF
	.globl _SCON
	.globl _P1
	.globl _TH1
	.globl _TH0
	.globl _TL1
	.globl _TL0
	.globl _TMOD
	.globl _TCON
	.globl _PCON
	.globl _DPH
	.globl _DPL
	.globl _SP
	.globl _P0
	.globl _get_config
	.globl _process_cmd
;--------------------------------------------------------
; special function registers
;--------------------------------------------------------
	.area RSEG    (ABS,DATA)
	.org 0x0000
_P0	=	0x0080
_SP	=	0x0081
_DPL	=	0x0082
_DPH	=	0x0083
_PCON	=	0x0087
_TCON	=	0x0088
_TMOD	=	0x0089
_TL0	=	0x008a
_TL1	=	0x008b
_TH0	=	0x008c
_TH1	=	0x008d
_P1	=	0x0090
_SCON	=	0x0098
_SBUF	=	0x0099
_P2	=	0x00a0
_IE	=	0x00a8
_P3	=	0x00b0
_IP	=	0x00b8
_PSW	=	0x00d0
_ACC	=	0x00e0
_B	=	0x00f0
;--------------------------------------------------------
; special function bits
;--------------------------------------------------------
	.area RSEG    (ABS,DATA)
	.org 0x0000
_P0_0	=	0x0080
_P0_1	=	0x0081
_P0_2	=	0x0082
_P0_3	=	0x0083
_P0_4	=	0x0084
_P0_5	=	0x0085
_P0_6	=	0x0086
_P0_7	=	0x0087
_IT0	=	0x0088
_IE0	=	0x0089
_IT1	=	0x008a
_IE1	=	0x008b
_TR0	=	0x008c
_TF0	=	0x008d
_TR1	=	0x008e
_TF1	=	0x008f
_P1_0	=	0x0090
_P1_1	=	0x0091
_P1_2	=	0x0092
_P1_3	=	0x0093
_P1_4	=	0x0094
_P1_5	=	0x0095
_P1_6	=	0x0096
_P1_7	=	0x0097
_RI	=	0x0098
_TI	=	0x0099
_RB8	=	0x009a
_TB8	=	0x009b
_REN	=	0x009c
_SM2	=	0x009d
_SM1	=	0x009e
_SM0	=	0x009f
_P2_0	=	0x00a0
_P2_1	=	0x00a1
_P2_2	=	0x00a2
_P2_3	=	0x00a3
_P2_4	=	0x00a4
_P2_5	=	0x00a5
_P2_6	=	0x00a6
_P2_7	=	0x00a7
_EX0	=	0x00a8
_ET0	=	0x00a9
_EX1	=	0x00aa
_ET1	=	0x00ab
_ES	=	0x00ac
_EA	=	0x00af
_P3_0	=	0x00b0
_P3_1	=	0x00b1
_P3_2	=	0x00b2
_P3_3	=	0x00b3
_P3_4	=	0x00b4
_P3_5	=	0x00b5
_P3_6	=	0x00b6
_P3_7	=	0x00b7
_RXD	=	0x00b0
_TXD	=	0x00b1
_INT0	=	0x00b2
_INT1	=	0x00b3
_T0	=	0x00b4
_T1	=	0x00b5
_WR	=	0x00b6
_RD	=	0x00b7
_PX0	=	0x00b8
_PT0	=	0x00b9
_PX1	=	0x00ba
_PT1	=	0x00bb
_PS	=	0x00bc
_P	=	0x00d0
_F1	=	0x00d1
_OV	=	0x00d2
_RS0	=	0x00d3
_RS1	=	0x00d4
_F0	=	0x00d5
_AC	=	0x00d6
_CY	=	0x00d7
;--------------------------------------------------------
; overlayable register banks
;--------------------------------------------------------
	.area REG_BANK_0	(REL,OVR,DATA)
	.ds 8
;--------------------------------------------------------
; internal ram data
;--------------------------------------------------------
	.area DSEG    (DATA)
_factor:
	.ds 3
_get_config_byte_10000_29:
	.ds 1
_process_cmd_cmd_val_10000_42:
	.ds 6
_process_byte_cmd_val_10000_53:
	.ds 3
_process_byte_added_10000_54:
	.ds 1
_process_byte_value_10000_54:
	.ds 2
_process_mac_cmd_val_10000_63:
	.ds 3
_process_mac_value_10000_64:
	.ds 1
_process_mac_temp_10000_64:
	.ds 1
_process_mode_cmd_val_10000_73:
	.ds 3
;--------------------------------------------------------
; overlayable items in internal ram
;--------------------------------------------------------
;--------------------------------------------------------
; indirectly addressable internal ram data
;--------------------------------------------------------
	.area ISEG    (DATA)
;--------------------------------------------------------
; absolute internal ram data
;--------------------------------------------------------
	.area IABS    (ABS,DATA)
	.area IABS    (ABS,DATA)
;--------------------------------------------------------
; bit data
;--------------------------------------------------------
	.area BSEG    (BIT)
;--------------------------------------------------------
; paged external ram data
;--------------------------------------------------------
	.area PSEG    (PAG,XDATA)
;--------------------------------------------------------
; uninitialized external ram data
;--------------------------------------------------------
	.area XSEG    (XDATA)
;--------------------------------------------------------
; absolute external ram data
;--------------------------------------------------------
	.area XABS    (ABS,XDATA)
;--------------------------------------------------------
; initialized external ram data
;--------------------------------------------------------
	.area XISEG   (XDATA)
	.area HOME    (CODE)
	.area GSINIT0 (CODE)
	.area GSINIT1 (CODE)
	.area GSINIT2 (CODE)
	.area GSINIT3 (CODE)
	.area GSINIT4 (CODE)
	.area GSINIT5 (CODE)
	.area GSINIT  (CODE)
	.area GSFINAL (CODE)
	.area CSEG    (CODE)
;--------------------------------------------------------
; global & static initialisations
;--------------------------------------------------------
	.area HOME    (CODE)
	.area GSINIT  (CODE)
	.area GSFINAL (CODE)
	.area GSINIT  (CODE)
;	.\config_menu.c:8: static unsigned char factor[3] = {100, 10, 1};
	mov	_factor,#0x64
	mov	(_factor + 0x0001),#0x0a
	mov	(_factor + 0x0002),#0x01
;--------------------------------------------------------
; Home
;--------------------------------------------------------
	.area HOME    (CODE)
	.area HOME    (CODE)
;--------------------------------------------------------
; code
;--------------------------------------------------------
	.area CSEG    (CODE)
;------------------------------------------------------------
;Allocation info for local variables in function 'get_config'
;------------------------------------------------------------
;byte                      Allocated with name '_get_config_byte_10000_29'
;------------------------------------------------------------
;	.\config_menu.c:17: void get_config(void){
;	-----------------------------------------
;	 function get_config
;	-----------------------------------------
_get_config:
	ar7 = 0x07
	ar6 = 0x06
	ar5 = 0x05
	ar4 = 0x04
	ar3 = 0x03
	ar2 = 0x02
	ar1 = 0x01
	ar0 = 0x00
;	.\config_menu.c:19: transmit_string("\r\nCurrent Config\r\nRTU: ");
	mov	dptr,#___str_0
	mov	b, #0x80
	lcall	_transmit_string
;	.\config_menu.c:20: transmit_int(rtu + '0');
	mov	r7,_rtu
	mov	a,#0x30
	add	a, r7
	mov	dpl,a
	lcall	_transmit_int
;	.\config_menu.c:21: transmit_string("\r\nIP Address: ");
	mov	dptr,#___str_1
	mov	b, #0x80
	lcall	_transmit_string
;	.\config_menu.c:22: begin();
	lcall	_begin
;	.\config_menu.c:24: asm_shift_in_2(0x00);
	mov	dpl, #0x00
	lcall	_asm_shift_in_2
;	.\config_menu.c:25: asm_shift_in_2(0x0F);
	mov	dpl, #0x0f
	lcall	_asm_shift_in_2
;	.\config_menu.c:26: asm_shift_in_2(0x00);
	mov	dpl, #0x00
	lcall	_asm_shift_in_2
;	.\config_menu.c:27: byte = asm_shift_out_2();
	lcall	_asm_shift_out_2
	mov	_get_config_byte_10000_29,dpl
;	.\config_menu.c:28: print_byte(&byte);
	mov	dptr,#_get_config_byte_10000_29
	mov	b, #0x40
	lcall	_print_byte
;	.\config_menu.c:29: transmit_int('.');
	mov	dpl, #0x2e
	lcall	_transmit_int
;	.\config_menu.c:30: byte = asm_shift_out_2();
	lcall	_asm_shift_out_2
	mov	_get_config_byte_10000_29,dpl
;	.\config_menu.c:31: print_byte(&byte);
	mov	dptr,#_get_config_byte_10000_29
	mov	b, #0x40
	lcall	_print_byte
;	.\config_menu.c:32: transmit_int('.');
	mov	dpl, #0x2e
	lcall	_transmit_int
;	.\config_menu.c:33: byte = asm_shift_out_2();
	lcall	_asm_shift_out_2
	mov	_get_config_byte_10000_29,dpl
;	.\config_menu.c:34: print_byte(&byte);
	mov	dptr,#_get_config_byte_10000_29
	mov	b, #0x40
	lcall	_print_byte
;	.\config_menu.c:35: transmit_int('.');
	mov	dpl, #0x2e
	lcall	_transmit_int
;	.\config_menu.c:36: byte = asm_shift_out_2();
	lcall	_asm_shift_out_2
	mov	_get_config_byte_10000_29,dpl
;	.\config_menu.c:37: print_byte(&byte);
	mov	dptr,#_get_config_byte_10000_29
	mov	b, #0x40
	lcall	_print_byte
;	.\config_menu.c:38: end();
	lcall	_end
;	.\config_menu.c:40: transmit_string("\r\nSubnet Mask: ");
	mov	dptr,#___str_2
	mov	b, #0x80
	lcall	_transmit_string
;	.\config_menu.c:42: begin();
	lcall	_begin
;	.\config_menu.c:43: asm_shift_in_2(0x00);
	mov	dpl, #0x00
	lcall	_asm_shift_in_2
;	.\config_menu.c:44: asm_shift_in_2(0x05);
	mov	dpl, #0x05
	lcall	_asm_shift_in_2
;	.\config_menu.c:45: asm_shift_in_2(0x00);
	mov	dpl, #0x00
	lcall	_asm_shift_in_2
;	.\config_menu.c:46: byte = asm_shift_out_2();
	lcall	_asm_shift_out_2
	mov	_get_config_byte_10000_29,dpl
;	.\config_menu.c:47: print_byte(&byte);
	mov	dptr,#_get_config_byte_10000_29
	mov	b, #0x40
	lcall	_print_byte
;	.\config_menu.c:48: transmit_int('.');
	mov	dpl, #0x2e
	lcall	_transmit_int
;	.\config_menu.c:49: byte = asm_shift_out_2();
	lcall	_asm_shift_out_2
	mov	_get_config_byte_10000_29,dpl
;	.\config_menu.c:50: print_byte(&byte);
	mov	dptr,#_get_config_byte_10000_29
	mov	b, #0x40
	lcall	_print_byte
;	.\config_menu.c:51: transmit_int('.');
	mov	dpl, #0x2e
	lcall	_transmit_int
;	.\config_menu.c:52: byte = asm_shift_out_2();
	lcall	_asm_shift_out_2
	mov	_get_config_byte_10000_29,dpl
;	.\config_menu.c:53: print_byte(&byte);
	mov	dptr,#_get_config_byte_10000_29
	mov	b, #0x40
	lcall	_print_byte
;	.\config_menu.c:54: transmit_int('.');
	mov	dpl, #0x2e
	lcall	_transmit_int
;	.\config_menu.c:55: byte = asm_shift_out_2();
	lcall	_asm_shift_out_2
	mov	_get_config_byte_10000_29,dpl
;	.\config_menu.c:56: print_byte(&byte);
	mov	dptr,#_get_config_byte_10000_29
	mov	b, #0x40
	lcall	_print_byte
;	.\config_menu.c:57: end();
	lcall	_end
;	.\config_menu.c:59: transmit_string("\r\nGateway: ");
	mov	dptr,#___str_3
	mov	b, #0x80
	lcall	_transmit_string
;	.\config_menu.c:61: begin();
	lcall	_begin
;	.\config_menu.c:62: asm_shift_in_2(0x00);
	mov	dpl, #0x00
	lcall	_asm_shift_in_2
;	.\config_menu.c:63: asm_shift_in_2(0x01);
	mov	dpl, #0x01
	lcall	_asm_shift_in_2
;	.\config_menu.c:64: asm_shift_in_2(0x00);
	mov	dpl, #0x00
	lcall	_asm_shift_in_2
;	.\config_menu.c:65: byte = asm_shift_out_2();
	lcall	_asm_shift_out_2
	mov	_get_config_byte_10000_29,dpl
;	.\config_menu.c:66: print_byte(&byte);
	mov	dptr,#_get_config_byte_10000_29
	mov	b, #0x40
	lcall	_print_byte
;	.\config_menu.c:67: transmit_int('.');
	mov	dpl, #0x2e
	lcall	_transmit_int
;	.\config_menu.c:68: byte = asm_shift_out_2();
	lcall	_asm_shift_out_2
	mov	_get_config_byte_10000_29,dpl
;	.\config_menu.c:69: print_byte(&byte);
	mov	dptr,#_get_config_byte_10000_29
	mov	b, #0x40
	lcall	_print_byte
;	.\config_menu.c:70: transmit_int('.');
	mov	dpl, #0x2e
	lcall	_transmit_int
;	.\config_menu.c:71: byte = asm_shift_out_2();
	lcall	_asm_shift_out_2
	mov	_get_config_byte_10000_29,dpl
;	.\config_menu.c:72: print_byte(&byte);
	mov	dptr,#_get_config_byte_10000_29
	mov	b, #0x40
	lcall	_print_byte
;	.\config_menu.c:73: transmit_int('.');
	mov	dpl, #0x2e
	lcall	_transmit_int
;	.\config_menu.c:74: byte = asm_shift_out_2();
	lcall	_asm_shift_out_2
	mov	_get_config_byte_10000_29,dpl
;	.\config_menu.c:75: print_byte(&byte);
	mov	dptr,#_get_config_byte_10000_29
	mov	b, #0x40
	lcall	_print_byte
;	.\config_menu.c:76: end();
	lcall	_end
;	.\config_menu.c:78: transmit_string("\r\nMAC Address: ");
	mov	dptr,#___str_4
	mov	b, #0x80
	lcall	_transmit_string
;	.\config_menu.c:80: begin();
	lcall	_begin
;	.\config_menu.c:81: asm_shift_in_2(0x00);
	mov	dpl, #0x00
	lcall	_asm_shift_in_2
;	.\config_menu.c:82: asm_shift_in_2(0x09);
	mov	dpl, #0x09
	lcall	_asm_shift_in_2
;	.\config_menu.c:83: asm_shift_in_2(0x00);
	mov	dpl, #0x00
	lcall	_asm_shift_in_2
;	.\config_menu.c:84: byte = asm_shift_out_2();
	lcall	_asm_shift_out_2
	mov	_get_config_byte_10000_29,dpl
;	.\config_menu.c:85: print_byte_hex(&byte);
	mov	dptr,#_get_config_byte_10000_29
	mov	b, #0x40
	lcall	_print_byte_hex
;	.\config_menu.c:86: byte = asm_shift_out_2();
	lcall	_asm_shift_out_2
	mov	_get_config_byte_10000_29,dpl
;	.\config_menu.c:87: print_byte_hex(&byte);
	mov	dptr,#_get_config_byte_10000_29
	mov	b, #0x40
	lcall	_print_byte_hex
;	.\config_menu.c:88: byte = asm_shift_out_2();
	lcall	_asm_shift_out_2
	mov	_get_config_byte_10000_29,dpl
;	.\config_menu.c:89: print_byte_hex(&byte);
	mov	dptr,#_get_config_byte_10000_29
	mov	b, #0x40
	lcall	_print_byte_hex
;	.\config_menu.c:90: byte = asm_shift_out_2();
	lcall	_asm_shift_out_2
	mov	_get_config_byte_10000_29,dpl
;	.\config_menu.c:91: print_byte_hex(&byte);
	mov	dptr,#_get_config_byte_10000_29
	mov	b, #0x40
	lcall	_print_byte_hex
;	.\config_menu.c:92: byte = asm_shift_out_2();
	lcall	_asm_shift_out_2
	mov	_get_config_byte_10000_29,dpl
;	.\config_menu.c:93: print_byte_hex(&byte);
	mov	dptr,#_get_config_byte_10000_29
	mov	b, #0x40
	lcall	_print_byte_hex
;	.\config_menu.c:94: byte = asm_shift_out_2();
	lcall	_asm_shift_out_2
	mov	_get_config_byte_10000_29,dpl
;	.\config_menu.c:95: print_byte_hex(&byte);
	mov	dptr,#_get_config_byte_10000_29
	mov	b, #0x40
	lcall	_print_byte_hex
;	.\config_menu.c:96: end(); 
	lcall	_end
;	.\config_menu.c:98: transmit_string("\r\n");
	mov	dptr,#___str_5
	mov	b, #0x80
;	.\config_menu.c:99: }
	ljmp	_transmit_string
;------------------------------------------------------------
;Allocation info for local variables in function 'print_byte'
;------------------------------------------------------------
;byte                      Allocated to registers r5 r6 r7 
;hundred_print             Allocated to registers r4 
;------------------------------------------------------------
;	.\config_menu.c:101: void print_byte(unsigned char *byte){
;	-----------------------------------------
;	 function print_byte
;	-----------------------------------------
_print_byte:
;	.\config_menu.c:102: unsigned char hundred_print = 0;
;	.\config_menu.c:103: if(*byte/100 != 0){
	mov	r5,dpl
	mov	r6,dph
	mov	r7,b
	mov	r4,#0x00
	lcall	__gptrget
	mov	r3,a
	mov	r2,#0x00
	mov	__divsint_PARM_2,#0x64
	mov	(__divsint_PARM_2 + 1),r4
	mov	dpl, r3
	mov	dph, r2
	push	ar7
	push	ar6
	push	ar5
	push	ar4
	lcall	__divsint
	mov	r2, dpl
	mov	r3, dph
	pop	ar4
	pop	ar5
	pop	ar6
	pop	ar7
	mov	a,r2
	orl	a,r3
	jz	00102$
;	.\config_menu.c:104: transmit_int((*byte/100) + '0');
	mov	a,#0x30
	add	a, r2
	mov	dpl,a
	push	ar7
	push	ar6
	push	ar5
	lcall	_transmit_int
	pop	ar5
	pop	ar6
	pop	ar7
;	.\config_menu.c:105: hundred_print = 1;
	mov	r4,#0x01
00102$:
;	.\config_menu.c:108: *byte %= 100;
	mov	dpl,r5
	mov	dph,r6
	mov	b,r7
	lcall	__gptrget
	mov	r3,a
	mov	r2,#0x00
	mov	__modsint_PARM_2,#0x64
	mov	(__modsint_PARM_2 + 1),r2
	mov	dpl, r3
	mov	dph, r2
	push	ar7
	push	ar6
	push	ar5
	push	ar4
	lcall	__modsint
	mov	r2, dpl
	pop	ar4
	pop	ar5
	pop	ar6
	pop	ar7
	mov	dpl,r5
	mov	dph,r6
	mov	b,r7
	mov	a,r2
	lcall	__gptrput
;	.\config_menu.c:110: if(*byte/10 == 0 && hundred_print == 1){
	mov	r3,#0x00
	mov	__divsint_PARM_2,#0x0a
	mov	(__divsint_PARM_2 + 1),r3
	mov	dpl, r2
	mov	dph, r3
	push	ar7
	push	ar6
	push	ar5
	push	ar4
	lcall	__divsint
	mov	a, dpl
	mov	b, dph
	pop	ar4
	pop	ar5
	pop	ar6
	pop	ar7
	orl	a,b
	jnz	00104$
	cjne	r4,#0x01,00104$
;	.\config_menu.c:111: transmit_int((*byte/10) + '0');
	mov	dpl,r5
	mov	dph,r6
	mov	b,r7
	lcall	__gptrget
	mov	r4,a
	mov	r3,#0x00
	mov	__divsint_PARM_2,#0x0a
	mov	(__divsint_PARM_2 + 1),r3
	mov	dpl, r4
	mov	dph, r3
	push	ar7
	push	ar6
	push	ar5
	lcall	__divsint
	mov	r3, dpl
	mov	a,#0x30
	add	a, r3
	mov	dpl,a
	lcall	_transmit_int
	pop	ar5
	pop	ar6
	pop	ar7
00104$:
;	.\config_menu.c:113: if(*byte/10 != 0){
	mov	dpl,r5
	mov	dph,r6
	mov	b,r7
	lcall	__gptrget
	mov	r4,a
	mov	r3,#0x00
	mov	__divsint_PARM_2,#0x0a
	mov	(__divsint_PARM_2 + 1),r3
	mov	dpl, r4
	mov	dph, r3
	push	ar7
	push	ar6
	push	ar5
	lcall	__divsint
	mov	a, dpl
	mov	b, dph
	pop	ar5
	pop	ar6
	pop	ar7
	orl	a,b
	jz	00107$
;	.\config_menu.c:114: transmit_int((*byte/10) + '0');
	mov	dpl,r5
	mov	dph,r6
	mov	b,r7
	lcall	__gptrget
	mov	r4,a
	mov	r3,#0x00
	mov	__divsint_PARM_2,#0x0a
	mov	(__divsint_PARM_2 + 1),r3
	mov	dpl, r4
	mov	dph, r3
	push	ar7
	push	ar6
	push	ar5
	lcall	__divsint
	mov	r3, dpl
	mov	a,#0x30
	add	a, r3
	mov	dpl,a
	lcall	_transmit_int
	pop	ar5
	pop	ar6
	pop	ar7
00107$:
;	.\config_menu.c:117: *byte %= 10;
	mov	dpl,r5
	mov	dph,r6
	mov	b,r7
	lcall	__gptrget
	mov	r4,a
	mov	r3,#0x00
	mov	__modsint_PARM_2,#0x0a
	mov	(__modsint_PARM_2 + 1),r3
	mov	dpl, r4
	mov	dph, r3
	push	ar7
	push	ar6
	push	ar5
	lcall	__modsint
	mov	r3, dpl
	pop	ar5
	pop	ar6
	pop	ar7
	mov	dpl,r5
	mov	dph,r6
	mov	b,r7
	mov	a,r3
	lcall	__gptrput
;	.\config_menu.c:119: transmit_int((*byte/1) + '0');
	mov	a,#0x30
	add	a, r3
	mov	dpl,a
;	.\config_menu.c:120: }
	ljmp	_transmit_int
;------------------------------------------------------------
;Allocation info for local variables in function 'print_byte_hex'
;------------------------------------------------------------
;byte                      Allocated to registers r5 r6 r7 
;------------------------------------------------------------
;	.\config_menu.c:122: void print_byte_hex(unsigned char *byte){
;	-----------------------------------------
;	 function print_byte_hex
;	-----------------------------------------
_print_byte_hex:
;	.\config_menu.c:123: if((*byte >> 4) >= 10){
	mov	r5,dpl
	mov	r6,dph
	mov	r7,b
	lcall	__gptrget
	swap	a
	anl	a,#0x0f
	mov	r4,a
	cjne	r4,#0x0a,00121$
00121$:
	jc	00102$
;	.\config_menu.c:124: transmit_int((*byte >> 4) + 'A' - 10);
	mov	ar3,r4
	mov	a,#0x37
	add	a, r3
	mov	dpl,a
	push	ar7
	push	ar6
	push	ar5
	lcall	_transmit_int
	pop	ar5
	pop	ar6
	pop	ar7
	sjmp	00103$
00102$:
;	.\config_menu.c:126: transmit_int((*byte >> 4) + '0');
	mov	a,#0x30
	add	a, r4
	mov	dpl,a
	push	ar7
	push	ar6
	push	ar5
	lcall	_transmit_int
	pop	ar5
	pop	ar6
	pop	ar7
00103$:
;	.\config_menu.c:129: if((*byte & 0x0F) >= 10){
	mov	dpl,r5
	mov	dph,r6
	mov	b,r7
	lcall	__gptrget
	mov	r7,a
	mov	r6,a
	anl	ar6,#0x0f
	cjne	r6,#0x0a,00123$
00123$:
	jc	00105$
;	.\config_menu.c:130: transmit_int((*byte & 0x0F) + 'A' - 10);
	mov	ar6,r7
	mov	a,#0x0f
	anl	a,r6
	add	a, #0x37
	mov	dpl,a
	lcall	_transmit_int
	sjmp	00106$
00105$:
;	.\config_menu.c:132: transmit_int((*byte & 0x0F) + '0');
	mov	a,#0x0f
	anl	a,r7
	add	a, #0x30
	mov	dpl,a
	lcall	_transmit_int
00106$:
;	.\config_menu.c:134: transmit_int(' ');
	mov	dpl, #0x20
;	.\config_menu.c:135: }
	ljmp	_transmit_int
;------------------------------------------------------------
;Allocation info for local variables in function 'process_cmd'
;------------------------------------------------------------
;cmd_val                   Allocated with name '_process_cmd_cmd_val_10000_42'
;cmd_sum                   Allocated to registers r6 r7 
;i                         Allocated to registers r6 r7 
;------------------------------------------------------------
;	.\config_menu.c:137: void process_cmd(void){
;	-----------------------------------------
;	 function process_cmd
;	-----------------------------------------
_process_cmd:
;	.\config_menu.c:139: int cmd_sum = 0;
	mov	r6,#0x00
	mov	r7,#0x00
;	.\config_menu.c:141: while(buffer[buffer_idx] != '=' && buffer[buffer_idx] != 0){
00102$:
	mov	a,_buffer_idx
	add	a, #_buffer
	mov	r1,a
	mov	ar5,@r1
	cjne	r5,#0x3d,00272$
	sjmp	00104$
00272$:
	mov	a,r5
	jz	00104$
;	.\config_menu.c:142: cmd_sum += buffer[buffer_idx];
	mov	r4,#0x00
	mov	a,r5
	add	a, r6
	mov	r6,a
	mov	a,r4
	addc	a, r7
	mov	r7,a
;	.\config_menu.c:143: buffer_idx++;
	inc	_buffer_idx
	sjmp	00102$
00104$:
;	.\config_menu.c:145: buffer_idx++;
	inc	_buffer_idx
;	.\config_menu.c:147: switch (cmd_sum){
	clr	a
	cjne	r6,#0x99,00274$
	cjne	r7,#0x00,00274$
	inc	a
00274$:
	mov	r5,a
	jnz	00111$
	cjne	r6,#0xd1,00277$
	cjne	r7,#0x00,00277$
	ljmp	00114$
00277$:
	cjne	r6,#0xea,00278$
	cjne	r7,#0x00,00278$
	sjmp	00112$
00278$:
	cjne	r6,#0xfb,00279$
	cjne	r7,#0x00,00279$
	sjmp	00105$
00279$:
	cjne	r6,#0x21,00280$
	cjne	r7,#0x01,00280$
	sjmp	00113$
00280$:
	cjne	r6,#0x25,00281$
	cjne	r7,#0x01,00281$
	ljmp	00115$
00281$:
	ljmp	00116$
;	.\config_menu.c:149: case 251:
00105$:
;	.\config_menu.c:150: if((buffer[buffer_idx] < '0' || buffer[buffer_idx] > '9') || buffer[buffer_idx + 1] != '.'){
	mov	a,_buffer_idx
	add	a, #_buffer
	mov	r1,a
	mov	ar4,@r1
	cjne	r4,#0x30,00282$
00282$:
	jc	00106$
	mov	a,r4
	add	a,#0xff - 0x39
	jc	00106$
	mov	a,_buffer_idx
	inc	a
	add	a, #_buffer
	mov	r1,a
	mov	ar3,@r1
	cjne	r3,#0x2e,00285$
	sjmp	00107$
00285$:
00106$:
;	.\config_menu.c:151: invalid_cmd_flag = 1;
	mov	_invalid_cmd_flag,#0x01
	ljmp	00117$
00107$:
;	.\config_menu.c:153: cmd_val[0] = buffer[buffer_idx] - '0';
	mov	a,r4
	add	a,#0xd0
	mov	_process_cmd_cmd_val_10000_42,a
;	.\config_menu.c:155: break;
	ljmp	00117$
;	.\config_menu.c:157: case 153:
00111$:
;	.\config_menu.c:158: process_byte(cmd_val);
	mov	dptr,#_process_cmd_cmd_val_10000_42
	mov	b, #0x40
	push	ar7
	push	ar6
	push	ar5
	lcall	_process_byte
	pop	ar5
	pop	ar6
	pop	ar7
;	.\config_menu.c:159: break;
;	.\config_menu.c:161: case 234:
	sjmp	00117$
00112$:
;	.\config_menu.c:162: process_byte(cmd_val);
	mov	dptr,#_process_cmd_cmd_val_10000_42
	mov	b, #0x40
	push	ar7
	push	ar6
	push	ar5
	lcall	_process_byte
	pop	ar5
	pop	ar6
	pop	ar7
;	.\config_menu.c:163: break;
;	.\config_menu.c:165: case 289:
	sjmp	00117$
00113$:
;	.\config_menu.c:166: process_byte(cmd_val);
	mov	dptr,#_process_cmd_cmd_val_10000_42
	mov	b, #0x40
	push	ar7
	push	ar6
	push	ar5
	lcall	_process_byte
	pop	ar5
	pop	ar6
	pop	ar7
;	.\config_menu.c:167: break;
;	.\config_menu.c:169: case 209:
	sjmp	00117$
00114$:
;	.\config_menu.c:170: process_mac(cmd_val);
	mov	dptr,#_process_cmd_cmd_val_10000_42
	mov	b, #0x40
	push	ar7
	push	ar6
	push	ar5
	lcall	_process_mac
	pop	ar5
	pop	ar6
	pop	ar7
;	.\config_menu.c:171: break;
;	.\config_menu.c:173: case 293:
	sjmp	00117$
00115$:
;	.\config_menu.c:174: process_mode(cmd_val);
	mov	dptr,#_process_cmd_cmd_val_10000_42
	mov	b, #0x40
	push	ar7
	push	ar6
	push	ar5
	lcall	_process_mode
	pop	ar5
	pop	ar6
	pop	ar7
;	.\config_menu.c:175: break;
;	.\config_menu.c:176: default:
	sjmp	00117$
00116$:
;	.\config_menu.c:178: invalid_cmd_flag = 1;
	mov	_invalid_cmd_flag,#0x01
;	.\config_menu.c:180: }
00117$:
;	.\config_menu.c:182: if(invalid_cmd_flag == 1){
	mov	a,#0x01
	cjne	a,_invalid_cmd_flag,00131$
;	.\config_menu.c:183: transmit_string("Invalid Command Format\r\n");
	mov	dptr,#___str_6
	mov	b, #0x80
	lcall	_transmit_string
	ljmp	00132$
00131$:
;	.\config_menu.c:185: switch (cmd_sum){
	mov	a,r5
	jnz	00119$
	cjne	r6,#0xd1,00289$
	cjne	r7,#0x00,00289$
	ljmp	00122$
00289$:
	cjne	r6,#0xea,00290$
	cjne	r7,#0x00,00290$
	sjmp	00120$
00290$:
	cjne	r6,#0xfb,00291$
	cjne	r7,#0x00,00291$
	sjmp	00118$
00291$:
	cjne	r6,#0x21,00292$
	cjne	r7,#0x01,00292$
	ljmp	00121$
00292$:
	cjne	r6,#0x25,00293$
	cjne	r7,#0x01,00293$
	ljmp	00123$
00293$:
	ljmp	00132$
;	.\config_menu.c:186: case 251:
00118$:
;	.\config_menu.c:187: rtu = cmd_val[0];
	mov	_rtu,_process_cmd_cmd_val_10000_42
;	.\config_menu.c:188: transmit_string("Successfully updated RTU\r\n");
	mov	dptr,#___str_7
	mov	b, #0x80
	lcall	_transmit_string
;	.\config_menu.c:189: mode = last_polling_mode;
	mov	_mode,_last_polling_mode
;	.\config_menu.c:190: break;
	ljmp	00132$
;	.\config_menu.c:191: case 153:
00119$:
;	.\config_menu.c:192: send_4(0x000F, 0x04, cmd_val[0], cmd_val[1], cmd_val[2], cmd_val[3]);
	mov	_send_4_PARM_3,_process_cmd_cmd_val_10000_42
	mov	(_send_4_PARM_3 + 1),#0x00
	mov	_send_4_PARM_4,(_process_cmd_cmd_val_10000_42 + 0x0001)
	mov	(_send_4_PARM_4 + 1),#0x00
	mov	_send_4_PARM_5,(_process_cmd_cmd_val_10000_42 + 0x0002)
	mov	(_send_4_PARM_5 + 1),#0x00
	mov	_send_4_PARM_6,(_process_cmd_cmd_val_10000_42 + 0x0003)
	mov	(_send_4_PARM_6 + 1),#0x00
	mov	_send_4_PARM_2,#0x04
	mov	(_send_4_PARM_2 + 1),#0x00
	mov	dptr,#0x000f
	lcall	_send_4
;	.\config_menu.c:193: transmit_string("Successfully updated IP");
	mov	dptr,#___str_8
	mov	b, #0x80
	lcall	_transmit_string
;	.\config_menu.c:194: mode = last_polling_mode;
	mov	_mode,_last_polling_mode
;	.\config_menu.c:195: break;
	ljmp	00132$
;	.\config_menu.c:196: case 234:
00120$:
;	.\config_menu.c:197: send_4(0x0005, 0x04, cmd_val[0], cmd_val[1], cmd_val[2], cmd_val[3]);
	mov	_send_4_PARM_3,_process_cmd_cmd_val_10000_42
	mov	(_send_4_PARM_3 + 1),#0x00
	mov	_send_4_PARM_4,(_process_cmd_cmd_val_10000_42 + 0x0001)
	mov	(_send_4_PARM_4 + 1),#0x00
	mov	_send_4_PARM_5,(_process_cmd_cmd_val_10000_42 + 0x0002)
	mov	(_send_4_PARM_5 + 1),#0x00
	mov	_send_4_PARM_6,(_process_cmd_cmd_val_10000_42 + 0x0003)
	mov	(_send_4_PARM_6 + 1),#0x00
	mov	_send_4_PARM_2,#0x04
	mov	(_send_4_PARM_2 + 1),#0x00
	mov	dptr,#0x0005
	lcall	_send_4
;	.\config_menu.c:198: transmit_string("Successfully updated Subnet Mask");
	mov	dptr,#___str_9
	mov	b, #0x80
	lcall	_transmit_string
;	.\config_menu.c:199: mode = last_polling_mode;
	mov	_mode,_last_polling_mode
;	.\config_menu.c:200: break;
	ljmp	00132$
;	.\config_menu.c:201: case 289:
00121$:
;	.\config_menu.c:202: send_4(0x0001, 0x04, cmd_val[0], cmd_val[1], cmd_val[2], cmd_val[3]);
	mov	_send_4_PARM_3,_process_cmd_cmd_val_10000_42
	mov	(_send_4_PARM_3 + 1),#0x00
	mov	_send_4_PARM_4,(_process_cmd_cmd_val_10000_42 + 0x0001)
	mov	(_send_4_PARM_4 + 1),#0x00
	mov	_send_4_PARM_5,(_process_cmd_cmd_val_10000_42 + 0x0002)
	mov	(_send_4_PARM_5 + 1),#0x00
	mov	_send_4_PARM_6,(_process_cmd_cmd_val_10000_42 + 0x0003)
	mov	(_send_4_PARM_6 + 1),#0x00
	mov	_send_4_PARM_2,#0x04
	mov	(_send_4_PARM_2 + 1),#0x00
	mov	dptr,#0x0001
	lcall	_send_4
;	.\config_menu.c:203: transmit_string("Successfully updated Gateway");
	mov	dptr,#___str_10
	mov	b, #0x80
	lcall	_transmit_string
;	.\config_menu.c:204: mode = last_polling_mode;
	mov	_mode,_last_polling_mode
;	.\config_menu.c:205: break;
	ljmp	00132$
;	.\config_menu.c:206: case 209:
00122$:
;	.\config_menu.c:207: set_mac_adr(cmd_val[0], cmd_val[1], cmd_val[2], cmd_val[3], cmd_val[4], cmd_val[5]);
	mov	r6,_process_cmd_cmd_val_10000_42
	mov	r7,#0x00
	mov	_set_mac_adr_PARM_2,(_process_cmd_cmd_val_10000_42 + 0x0001)
	mov	(_set_mac_adr_PARM_2 + 1),r7
	mov	_set_mac_adr_PARM_3,(_process_cmd_cmd_val_10000_42 + 0x0002)
	mov	(_set_mac_adr_PARM_3 + 1),r7
	mov	_set_mac_adr_PARM_4,(_process_cmd_cmd_val_10000_42 + 0x0003)
	mov	(_set_mac_adr_PARM_4 + 1),r7
	mov	_set_mac_adr_PARM_5,(_process_cmd_cmd_val_10000_42 + 0x0004)
	mov	(_set_mac_adr_PARM_5 + 1),r7
	mov	_set_mac_adr_PARM_6,(_process_cmd_cmd_val_10000_42 + 0x0005)
	mov	(_set_mac_adr_PARM_6 + 1),r7
	mov	dpl, r6
	mov	dph, r7
	lcall	_set_mac_adr
;	.\config_menu.c:208: transmit_string("Successfully updated MAC Address");
	mov	dptr,#___str_11
	mov	b, #0x80
	lcall	_transmit_string
;	.\config_menu.c:209: mode = last_polling_mode;
	mov	_mode,_last_polling_mode
;	.\config_menu.c:210: break;
	ljmp	00132$
;	.\config_menu.c:211: case 293:
00123$:
;	.\config_menu.c:213: send_1(0x0001, 0x0C, 0x10);
	mov	_send_1_PARM_2,#0x0c
	mov	(_send_1_PARM_2 + 1),#0x00
	mov	_send_1_PARM_3,#0x10
	mov	(_send_1_PARM_3 + 1),#0x00
	mov	dptr,#0x0001
	lcall	_send_1
;	.\config_menu.c:214: switch (cmd_val[0])
	mov	r7,_process_cmd_cmd_val_10000_42
	cjne	r7,#0xe7,00294$
	sjmp	00125$
00294$:
	cjne	r7,#0xe9,00126$
;	.\config_menu.c:218: send_1(0x0000, 0x0C, 0x02);
	mov	_send_1_PARM_2,#0x0c
	mov	(_send_1_PARM_2 + 1),#0x00
	mov	_send_1_PARM_3,#0x02
	mov	(_send_1_PARM_3 + 1),#0x00
	mov	dptr,#0x0000
	lcall	_send_1
;	.\config_menu.c:220: send_1(0x0001, 0x0C, 0x01);
	mov	_send_1_PARM_2,#0x0c
	mov	(_send_1_PARM_2 + 1),#0x00
	mov	_send_1_PARM_3,#0x01
	mov	(_send_1_PARM_3 + 1),#0x00
	mov	dptr,#0x0001
	lcall	_send_1
;	.\config_menu.c:221: mode = DUAL_POLLING_MODE;
	mov	_mode,#0x00
;	.\config_menu.c:223: break;
;	.\config_menu.c:224: case 231:
	sjmp	00127$
00125$:
;	.\config_menu.c:226: send_1(0x0000, 0x0C, 0x01);
	mov	_send_1_PARM_2,#0x0c
	mov	(_send_1_PARM_2 + 1),#0x00
	mov	_send_1_PARM_3,#0x01
	mov	(_send_1_PARM_3 + 1),#0x00
	mov	dptr,#0x0000
	lcall	_send_1
;	.\config_menu.c:228: send_1(0x0001, 0x0C, 0x01);
	mov	_send_1_PARM_2,#0x0c
	mov	(_send_1_PARM_2 + 1),#0x00
	mov	_send_1_PARM_3,#0x01
	mov	(_send_1_PARM_3 + 1),#0x00
	mov	dptr,#0x0001
	lcall	_send_1
;	.\config_menu.c:230: send_1(0x0001, 0x0C, 0x02);
	mov	_send_1_PARM_2,#0x0c
	mov	(_send_1_PARM_2 + 1),#0x00
	mov	_send_1_PARM_3,#0x02
	mov	(_send_1_PARM_3 + 1),#0x00
	mov	dptr,#0x0001
	lcall	_send_1
;	.\config_menu.c:231: mode = TCP_POLLING_MODE;
	mov	_mode,#0x01
;	.\config_menu.c:232: break;
;	.\config_menu.c:233: default:
	sjmp	00127$
00126$:
;	.\config_menu.c:234: mode = last_polling_mode;
	mov	_mode,_last_polling_mode
;	.\config_menu.c:236: }
00127$:
;	.\config_menu.c:237: transmit_string("Changed mode");
	mov	dptr,#___str_12
	mov	b, #0x80
	lcall	_transmit_string
;	.\config_menu.c:241: }
00132$:
;	.\config_menu.c:243: mode = last_polling_mode;
	mov	_mode,_last_polling_mode
;	.\config_menu.c:244: for(int i = 0; i < 6; i++){
	mov	r6,#0x00
	mov	r7,#0x00
00135$:
	clr	c
	mov	a,r6
	subb	a,#0x06
	mov	a,r7
	xrl	a,#0x80
	subb	a,#0x80
	jnc	00133$
;	.\config_menu.c:245: cmd_val[i] = 0;
	mov	a,r6
	add	a, #_process_cmd_cmd_val_10000_42
	mov	r0,a
	mov	@r0,#0x00
;	.\config_menu.c:244: for(int i = 0; i < 6; i++){
	inc	r6
	cjne	r6,#0x00,00135$
	inc	r7
	sjmp	00135$
00133$:
;	.\config_menu.c:247: invalid_cmd_flag = 0;
	mov	_invalid_cmd_flag,#0x00
;	.\config_menu.c:248: }
	ret
;------------------------------------------------------------
;Allocation info for local variables in function 'process_byte'
;------------------------------------------------------------
;cmd_val                   Allocated with name '_process_byte_cmd_val_10000_53'
;added                     Allocated with name '_process_byte_added_10000_54'
;counter                   Allocated to registers r3 
;value                     Allocated with name '_process_byte_value_10000_54'
;------------------------------------------------------------
;	.\config_menu.c:250: void process_byte(unsigned char cmd_val[]){
;	-----------------------------------------
;	 function process_byte
;	-----------------------------------------
_process_byte:
	mov	_process_byte_cmd_val_10000_53,dpl
	mov	(_process_byte_cmd_val_10000_53 + 1),dph
	mov	(_process_byte_cmd_val_10000_53 + 2),b
;	.\config_menu.c:251: unsigned char added = 0;
;	.\config_menu.c:252: unsigned char counter = 0;
;	.\config_menu.c:253: int value = 0;
	clr	a
	mov	r4,a
	mov	r3,a
	mov	_process_byte_value_10000_54,a
	mov	(_process_byte_value_10000_54 + 1),a
;	.\config_menu.c:255: while(buffer_idx < buffer_size && buffer[buffer_idx] != 0){
	mov	_process_byte_added_10000_54,a
00118$:
	clr	c
	mov	a,_buffer_idx
	subb	a,_buffer_size
	jc	00197$
	ljmp	00120$
00197$:
	mov	a,_buffer_idx
	add	a, #_buffer
	mov	r1,a
	mov	a,@r1
	mov	r5,a
	jnz	00198$
	ljmp	00120$
00198$:
;	.\config_menu.c:256: if((buffer[buffer_idx] >= '0' && buffer[buffer_idx] <= '9') && counter <= 2){
	cjne	r5,#0x30,00199$
00199$:
	jc	00113$
	mov	a,r5
	add	a,#0xff - 0x39
	jc	00113$
	mov	a,r3
	add	a,#0xff - 0x02
	jc	00113$
;	.\config_menu.c:257: value += ((buffer[buffer_idx] - '0') * factor[counter]);
	mov	r6,#0x00
	mov	a,r5
	add	a,#0xd0
	mov	dpl,a
	mov	a,r6
	addc	a,#0xff
	mov	dph,a
	mov	a,r3
	add	a, #_factor
	mov	r1,a
	mov	ar6,@r1
	mov	__mulint_PARM_2,r6
	mov	(__mulint_PARM_2 + 1),#0x00
	push	ar4
	push	ar3
	lcall	__mulint
	mov	r5, dpl
	mov	r6, dph
	pop	ar3
	pop	ar4
	mov	a,r5
	add	a, _process_byte_value_10000_54
	mov	_process_byte_value_10000_54,a
	mov	a,r6
	addc	a, (_process_byte_value_10000_54 + 1)
	mov	(_process_byte_value_10000_54 + 1),a
;	.\config_menu.c:258: counter++;
	inc	r3
;	.\config_menu.c:259: buffer_idx++;
	inc	_buffer_idx
	sjmp	00118$
00113$:
;	.\config_menu.c:260: } else if (buffer[buffer_idx] == '.' && counter > 0){
	mov	a,_buffer_idx
	add	a, #_buffer
	mov	r1,a
	mov	ar6,@r1
	cjne	r6,#0x2e,00203$
	sjmp	00204$
00203$:
	ljmp	00109$
00204$:
	mov	a,r3
	jnz	00205$
	ljmp	00109$
00205$:
;	.\config_menu.c:261: if(counter == 2){
	cjne	r3,#0x02,00104$
;	.\config_menu.c:262: value = value/10;
	mov	__divsint_PARM_2,#0x0a
	mov	(__divsint_PARM_2 + 1),#0x00
	mov	dpl, _process_byte_value_10000_54
	mov	dph, (_process_byte_value_10000_54 + 1)
	push	ar4
	lcall	__divsint
	mov	_process_byte_value_10000_54,dpl
	mov	(_process_byte_value_10000_54 + 1),dph
	pop	ar4
	sjmp	00105$
00104$:
;	.\config_menu.c:263: } else if (counter == 1){
	cjne	r3,#0x01,00105$
;	.\config_menu.c:264: value = value/100;
	mov	__divsint_PARM_2,#0x64
	mov	(__divsint_PARM_2 + 1),#0x00
	mov	dpl, _process_byte_value_10000_54
	mov	dph, (_process_byte_value_10000_54 + 1)
	push	ar4
	lcall	__divsint
	mov	_process_byte_value_10000_54,dpl
	mov	(_process_byte_value_10000_54 + 1),dph
	pop	ar4
00105$:
;	.\config_menu.c:266: if(value > 255){
	clr	c
	mov	a,#0xff
	subb	a,_process_byte_value_10000_54
	mov	a,#(0x00 ^ 0x80)
	mov	b,(_process_byte_value_10000_54 + 1)
	xrl	b,#0x80
	subb	a,b
	jnc	00107$
;	.\config_menu.c:267: invalid_cmd_flag = 1; 
	mov	_invalid_cmd_flag,#0x01
;	.\config_menu.c:268: transmit_string("1");
	mov	dptr,#___str_13
	mov	b, #0x80
	push	ar4
	lcall	_transmit_string
	pop	ar4
;	.\config_menu.c:269: break;
	sjmp	00120$
00107$:
;	.\config_menu.c:271: cmd_val[added] = value;
	mov	a,_process_byte_added_10000_54
	add	a, _process_byte_cmd_val_10000_53
	mov	r5,a
	clr	a
	addc	a, (_process_byte_cmd_val_10000_53 + 1)
	mov	r6,a
	mov	r7,(_process_byte_cmd_val_10000_53 + 2)
	mov	r2,_process_byte_value_10000_54
	mov	dpl,r5
	mov	dph,r6
	mov	b,r7
	mov	a,r2
	lcall	__gptrput
;	.\config_menu.c:272: value = 0;
	clr	a
	mov	_process_byte_value_10000_54,a
	mov	(_process_byte_value_10000_54 + 1),a
;	.\config_menu.c:273: added++;
	inc	_process_byte_added_10000_54
	mov	r4,_process_byte_added_10000_54
;	.\config_menu.c:274: counter = 0;
	mov	r3,a
;	.\config_menu.c:275: buffer_idx++;
	inc	_buffer_idx
	ljmp	00118$
00109$:
;	.\config_menu.c:277: transmit_string("2");
	mov	dptr,#___str_14
	mov	b, #0x80
	push	ar4
	lcall	_transmit_string
	pop	ar4
;	.\config_menu.c:278: invalid_cmd_flag = 1;
	mov	_invalid_cmd_flag,#0x01
;	.\config_menu.c:279: break;
00120$:
;	.\config_menu.c:283: if(added != 4){
	cjne	r4,#0x04,00211$
	ret
00211$:
;	.\config_menu.c:284: transmit_string("3");
	mov	dptr,#___str_15
	mov	b, #0x80
	lcall	_transmit_string
;	.\config_menu.c:285: invalid_cmd_flag = 1;
	mov	_invalid_cmd_flag,#0x01
;	.\config_menu.c:286: return;
;	.\config_menu.c:288: }
	ret
;------------------------------------------------------------
;Allocation info for local variables in function 'process_mac'
;------------------------------------------------------------
;cmd_val                   Allocated with name '_process_mac_cmd_val_10000_63'
;added                     Allocated to registers r4 
;value                     Allocated with name '_process_mac_value_10000_64'
;temp                      Allocated with name '_process_mac_temp_10000_64'
;------------------------------------------------------------
;	.\config_menu.c:290: void process_mac(unsigned char cmd_val[]){
;	-----------------------------------------
;	 function process_mac
;	-----------------------------------------
_process_mac:
	mov	_process_mac_cmd_val_10000_63,dpl
	mov	(_process_mac_cmd_val_10000_63 + 1),dph
	mov	(_process_mac_cmd_val_10000_63 + 2),b
;	.\config_menu.c:294: while(buffer[buffer_idx] != 0 && buffer[buffer_idx] != '.'){
	mov	r4,#0x00
00102$:
	mov	a,_buffer_idx
	add	a, #_buffer
	mov	r1,a
	mov	a,@r1
	mov	r3,a
	jz	00104$
	cjne	r3,#0x2e,00139$
	sjmp	00104$
00139$:
;	.\config_menu.c:295: temp = buffer[buffer_idx];
	mov	_process_mac_temp_10000_64,r3
;	.\config_menu.c:296: process_temp(&temp);
	mov	dptr,#_process_mac_temp_10000_64
	mov	b, #0x40
	push	ar4
	lcall	_process_temp
;	.\config_menu.c:297: value = temp << 4;
	mov	a,_process_mac_temp_10000_64
	swap	a
	anl	a,#0xf0
	mov	r3,a
;	.\config_menu.c:298: buffer_idx++;
	inc	_buffer_idx
;	.\config_menu.c:300: temp = buffer[buffer_idx];
	mov	a,_buffer_idx
	add	a, #_buffer
	mov	r1,a
	mov	_process_mac_temp_10000_64,@r1
;	.\config_menu.c:301: process_temp(&temp);
	mov	dptr,#_process_mac_temp_10000_64
	mov	b, #0x40
	push	ar3
	lcall	_process_temp
	pop	ar3
	pop	ar4
;	.\config_menu.c:302: value |= temp;
	mov	a,_process_mac_temp_10000_64
	orl	a,r3
	mov	_process_mac_value_10000_64,a
;	.\config_menu.c:303: buffer_idx++;
	inc	_buffer_idx
;	.\config_menu.c:305: cmd_val[added] = value;
	mov	a,r4
	add	a, _process_mac_cmd_val_10000_63
	mov	r2,a
	clr	a
	addc	a, (_process_mac_cmd_val_10000_63 + 1)
	mov	r3,a
	mov	r7,(_process_mac_cmd_val_10000_63 + 2)
	mov	dpl,r2
	mov	dph,r3
	mov	b,r7
	mov	a,_process_mac_value_10000_64
	lcall	__gptrput
;	.\config_menu.c:306: added++;
	inc	r4
	sjmp	00102$
00104$:
;	.\config_menu.c:308: if(added != 6){
	cjne	r4,#0x06,00140$
	ret
00140$:
;	.\config_menu.c:309: transmit_string("Not enough values");
	mov	dptr,#___str_16
	mov	b, #0x80
	lcall	_transmit_string
;	.\config_menu.c:310: invalid_cmd_flag = 1;
	mov	_invalid_cmd_flag,#0x01
;	.\config_menu.c:312: }
	ret
;------------------------------------------------------------
;Allocation info for local variables in function 'process_temp'
;------------------------------------------------------------
;temp                      Allocated to registers r5 r6 r7 
;------------------------------------------------------------
;	.\config_menu.c:314: void process_temp(unsigned char *temp){
;	-----------------------------------------
;	 function process_temp
;	-----------------------------------------
_process_temp:
;	.\config_menu.c:317: if(*temp >= '0' && *temp <= '9'){
	mov	r5,dpl
	mov	r6,dph
	mov	r7,b
	lcall	__gptrget
	mov	r4,a
	cjne	r4,#0x30,00151$
00151$:
	jc	00110$
	mov	a,r4
	add	a,#0xff - 0x39
	jc	00110$
;	.\config_menu.c:318: *temp -= 48;
	mov	ar3,r4
	mov	a,r3
	add	a,#0xd0
	mov	dpl,r5
	mov	dph,r6
	mov	b,r7
	ljmp	__gptrput
00110$:
;	.\config_menu.c:320: } else if (*temp >= 'a' && *temp <= 'f'){
	cjne	r4,#0x61,00154$
00154$:
	jc	00106$
	mov	a,r4
	add	a,#0xff - 0x66
	jc	00106$
;	.\config_menu.c:321: *temp -= 87;
	mov	ar3,r4
	mov	a,r3
	add	a,#0xa9
	mov	dpl,r5
	mov	dph,r6
	mov	b,r7
	ljmp	__gptrput
00106$:
;	.\config_menu.c:323: } else if (*temp >= 'A' && *temp <= 'F'){
	cjne	r4,#0x41,00157$
00157$:
	jc	00102$
	mov	a,r4
	add	a,#0xff - 0x46
	jc	00102$
;	.\config_menu.c:324: *temp -= 55;
	mov	a,r4
	add	a,#0xc9
	mov	dpl,r5
	mov	dph,r6
	mov	b,r7
	ljmp	__gptrput
00102$:
;	.\config_menu.c:326: transmit_string("Temp is: ");
	mov	dptr,#___str_17
	mov	b, #0x80
	push	ar7
	push	ar6
	push	ar5
	lcall	_transmit_string
	pop	ar5
	pop	ar6
	pop	ar7
;	.\config_menu.c:327: transmit_data(temp);
	mov	dpl, r5
	mov	dph, r6
	mov	b, r7
	lcall	_transmit_data
;	.\config_menu.c:328: transmit_string("\r\n");
	mov	dptr,#___str_5
	mov	b, #0x80
	lcall	_transmit_string
;	.\config_menu.c:329: invalid_cmd_flag = 1;
	mov	_invalid_cmd_flag,#0x01
;	.\config_menu.c:331: }
	ret
;------------------------------------------------------------
;Allocation info for local variables in function 'process_mode'
;------------------------------------------------------------
;cmd_val                   Allocated with name '_process_mode_cmd_val_10000_73'
;mode_sum                  Allocated to registers r3 r4 
;i                         Allocated to registers r2 
;------------------------------------------------------------
;	.\config_menu.c:333: void process_mode(unsigned char cmd_val[]){
;	-----------------------------------------
;	 function process_mode
;	-----------------------------------------
_process_mode:
	mov	_process_mode_cmd_val_10000_73,dpl
	mov	(_process_mode_cmd_val_10000_73 + 1),dph
	mov	(_process_mode_cmd_val_10000_73 + 2),b
;	.\config_menu.c:334: int mode_sum = 0;
	mov	r3,#0x00
	mov	r4,#0x00
;	.\config_menu.c:335: for(int i = 0; i < 3; i++){
	mov	r2,#0x00
00107$:
	cjne	r2,#0x03,00130$
00130$:
	jnc	00101$
;	.\config_menu.c:336: mode_sum += buffer[buffer_idx];
	mov	a,_buffer_idx
	add	a, #_buffer
	mov	r1,a
	mov	ar7,@r1
	mov	r6,#0x00
	mov	a,r7
	add	a, r3
	mov	r3,a
	mov	a,r6
	addc	a, r4
	mov	r4,a
;	.\config_menu.c:337: buffer_idx++;
	inc	_buffer_idx
;	.\config_menu.c:335: for(int i = 0; i < 3; i++){
	inc	r2
	sjmp	00107$
00101$:
;	.\config_menu.c:339: if(mode_sum == 233 || mode_sum == 231){
	cjne	r3,#0xe9,00132$
	cjne	r4,#0x00,00132$
	sjmp	00102$
00132$:
	cjne	r3,#0xe7,00103$
	cjne	r4,#0x00,00103$
00102$:
;	.\config_menu.c:340: cmd_val[0] = mode_sum;
	mov	dpl,_process_mode_cmd_val_10000_73
	mov	dph,(_process_mode_cmd_val_10000_73 + 1)
	mov	b,(_process_mode_cmd_val_10000_73 + 2)
	mov	a,r3
	ljmp	__gptrput
00103$:
;	.\config_menu.c:342: invalid_cmd_flag = 1;
	mov	_invalid_cmd_flag,#0x01
;	.\config_menu.c:343: transmit_string("Invalid mode format\r\n");
	mov	dptr,#___str_18
	mov	b, #0x80
;	.\config_menu.c:345: }
	ljmp	_transmit_string
	.area CSEG    (CODE)
	.area CONST   (CODE)
	.area CONST   (CODE)
___str_0:
	.db 0x0d
	.db 0x0a
	.ascii "Current Config"
	.db 0x0d
	.db 0x0a
	.ascii "RTU: "
	.db 0x00
	.area CSEG    (CODE)
	.area CONST   (CODE)
___str_1:
	.db 0x0d
	.db 0x0a
	.ascii "IP Address: "
	.db 0x00
	.area CSEG    (CODE)
	.area CONST   (CODE)
___str_2:
	.db 0x0d
	.db 0x0a
	.ascii "Subnet Mask: "
	.db 0x00
	.area CSEG    (CODE)
	.area CONST   (CODE)
___str_3:
	.db 0x0d
	.db 0x0a
	.ascii "Gateway: "
	.db 0x00
	.area CSEG    (CODE)
	.area CONST   (CODE)
___str_4:
	.db 0x0d
	.db 0x0a
	.ascii "MAC Address: "
	.db 0x00
	.area CSEG    (CODE)
	.area CONST   (CODE)
___str_5:
	.db 0x0d
	.db 0x0a
	.db 0x00
	.area CSEG    (CODE)
	.area CONST   (CODE)
___str_6:
	.ascii "Invalid Command Format"
	.db 0x0d
	.db 0x0a
	.db 0x00
	.area CSEG    (CODE)
	.area CONST   (CODE)
___str_7:
	.ascii "Successfully updated RTU"
	.db 0x0d
	.db 0x0a
	.db 0x00
	.area CSEG    (CODE)
	.area CONST   (CODE)
___str_8:
	.ascii "Successfully updated IP"
	.db 0x00
	.area CSEG    (CODE)
	.area CONST   (CODE)
___str_9:
	.ascii "Successfully updated Subnet Mask"
	.db 0x00
	.area CSEG    (CODE)
	.area CONST   (CODE)
___str_10:
	.ascii "Successfully updated Gateway"
	.db 0x00
	.area CSEG    (CODE)
	.area CONST   (CODE)
___str_11:
	.ascii "Successfully updated MAC Address"
	.db 0x00
	.area CSEG    (CODE)
	.area CONST   (CODE)
___str_12:
	.ascii "Changed mode"
	.db 0x00
	.area CSEG    (CODE)
	.area CONST   (CODE)
___str_13:
	.ascii "1"
	.db 0x00
	.area CSEG    (CODE)
	.area CONST   (CODE)
___str_14:
	.ascii "2"
	.db 0x00
	.area CSEG    (CODE)
	.area CONST   (CODE)
___str_15:
	.ascii "3"
	.db 0x00
	.area CSEG    (CODE)
	.area CONST   (CODE)
___str_16:
	.ascii "Not enough values"
	.db 0x00
	.area CSEG    (CODE)
	.area CONST   (CODE)
___str_17:
	.ascii "Temp is: "
	.db 0x00
	.area CSEG    (CODE)
	.area CONST   (CODE)
___str_18:
	.ascii "Invalid mode format"
	.db 0x0d
	.db 0x0a
	.db 0x00
	.area CSEG    (CODE)
	.area XINIT   (CODE)
	.area CABS    (ABS,CODE)
